(dp0
S'500233'
p1
(dp2
S'rep4'
p3
(lp4
(V\u4f53\u80b2\u8def
p5
L404300L
tp6
a(V\u4e1c\u5761\u8def
p7
L404300L
tp8
assS'320303'
p9
(dp10
S'rep1'
p11
(lp12
(V\u5f90\u5dde\u7a7a\u519b\u5b66\u9662\u5bb6\u5c5e\u9662
p13
L221014L
tp14
assS'430681'
p15
(dp16
g11
(lp17
(V\u6c68\u7f57\u9547
p18
L414001L
tp19
a(V\u53e4\u57f9\u9547
p20
L414001L
tp21
a(V\u767d\u6c34\u9547
p22
L414001L
tp23
a(V\u5ddd\u5c71\u576a\u9547
p24
L414001L
tp25
a(V\u9ad8\u5bb6\u574a\u9547
p26
L414001L
tp27
a(V\u5f3c\u65f6\u9547
p28
L414001L
tp29
a(V\u674e\u5bb6\u6bb5\u9547
p30
L414001L
tp31
a(V\u5927\u8346\u9547
p32
L414001L
tp33
a(V\u6843\u6797\u5bfa\u9547
p34
L414001L
tp35
a(V\u4e09\u6c5f\u9547
p36
L414001L
tp37
a(V\u8303\u5bb6\u56ed\u9547
p38
L414001L
tp39
a(V\u6c99\u6eaa\u9547
p40
L414001L
tp41
a(V\u6cb3\u5e02\u9547
p42
L414001L
tp43
a(V\u5c48\u5b50\u7960\u9547
p44
L414001L
tp45
a(V\u57ce\u90ca\u4e61
p46
L414001L
tp47
a(V\u7ea2\u82b1\u4e61
p48
L414001L
tp49
a(V\u9ec4\u5e02\u4e61
p50
L414001L
tp51
a(V\u7389\u6c60\u4e61
p52
L414001L
tp53
a(V\u5929\u4e95\u4e61
p54
L414001L
tp55
a(V\u667a\u5cf0\u4e61
p56
L414001L
tp57
a(V\u53e4\u4ed1\u4e61
p58
L414001L
tp59
a(V\u706b\u5929\u4e61
p60
L414001L
tp61
a(V\u65b0\u5858\u4e61
p62
L414001L
tp63
a(V\u767d\u5858\u4e61
p64
L414001L
tp65
a(V\u78ca\u77f3\u4e61
p66
L414001L
tp67
a(V\u516b\u666f\u4e61
p68
L414001L
tp69
a(V\u9ec4\u91d1\u4e61
p70
L414001L
tp71
a(V\u7434\u68cb\u4e61
p72
L414001L
tp73
assS'500235'
p74
(dp75
g11
(lp76
(V\u6e05\u6c34\u4e61
p77
L404500L
tp78
a(V\u6545\u9675\u9547
p79
L404500L
tp80
a(V\u65b0\u6d25\u4e61
p81
L404500L
tp82
a(V\u666e\u5b89\u4e61
p83
L404500L
tp84
a(V\u5830\u576a\u4e61
p85
L404500L
tp86
a(V\u7ea2\u72ee\u9547
p87
L404500L
tp88
a(V\u9f99\u6d1e\u4e61
p89
L404500L
tp90
a(V\u6d1e\u9e7f\u4e61
p91
L404500L
tp92
a(V\u5357\u6eaa\u9547
p93
L404500L
tp94
a(V\u53cc\u571f\u9547
p95
L404500L
tp96
a(V\u6851\u576a\u9547
p97
L404500L
tp98
a(V\u5927\u9633\u4e61
p99
L404500L
tp100
a(V\u77f3\u95e8\u4e61
p101
L404500L
tp102
a(V\u5df4\u9633\u9547
p103
L404500L
tp104
a(V\u8def\u9633\u9547
p105
L404500L
tp106
a(V\u517b\u9e7f\u4e61
p107
L404500L
tp108
a(V\u5e73\u5b89\u9547
p109
L404500L
tp110
a(V\u4e0a\u575d\u4e61
p111
L404500L
tp112
a(V\u9c7c\u6cc9\u9547
p113
L404500L
tp114
a(V\u6c99\u5e02\u9547
p115
L404500L
tp116
a(V\u53cc\u9f99\u4e61
p117
L404500L
tp118
a(V\u6e20\u9a6c\u9547
p119
L404500L
tp120
a(V\u9ad8\u9633\u9547
p121
L404500L
tp122
a(V\u519c\u575d\u9547
p123
L404500L
tp124
a(V\u540e\u53f6\u4e61
p125
L404500L
tp126
a(V\u8000\u7075\u4e61
p127
L404500L
tp128
a(V\u4e91\u5b89\u9547
p129
L404500L
tp130
a(V\u6c5f\u53e3\u9547
p131
L404500L
tp132
a(V\u9ec4\u77f3\u9547
p133
L404500L
tp134
a(V\u6c34\u53e3\u4e61
p135
L404500L
tp136
a(V\u4e91\u7850\u4e61
p137
L404500L
tp138
a(V\u6816\u971e\u4e61
p139
L404500L
tp140
a(V\u6bdb\u575d\u4e61
p141
L404500L
tp142
a(V\u51e4\u9e23\u9547
p143
L404500L
tp144
a(V\u76d8\u9f99\u9547
p145
L404500L
tp146
a(V\u5916\u90ce\u4e61
p147
L404500L
tp148
a(V\u9f99\u89d2\u9547
p149
L404500L
tp150
a(V\u5b9d\u576a\u9547
p151
L404500L
tp152
a(V\u6ce5\u6eaa\u4e61
p153
L404500L
tp154
assS'500238'
p155
(dp156
S'rep<6'
p157
(lp158
(V\u7530\u575d
p159
L405800L
tp160
a(V\u5c16\u5c71
p161
L405800L
tp162
a(V\u5858\u574a
p163
L405800L
tp164
a(V\u5e97\u5b50
p165
L405800L
tp166
a(V\u51e4\u51f0
p167
L405800L
tp168
a(V\u82b1\u7c9f
p169
L405800L
tp170
a(V\u5f90\u5bb6
p171
L405800L
tp172
a(V\u901a\u57ce
p173
L405800L
tp174
a(V\u5927\u6cb3
p175
L405800L
tp176
a(V\u524d\u6cb3
p177
L405800L
tp178
a(V\u6c88\u5bb6
p179
L405800L
tp180
a(V\u5b81\u6865
p181
L405800L
tp182
a(V\u5b81\u5382
p183
L405800L
tp184
a(V\u4e0b\u5821
p185
L405800L
tp186
a(V\u82b1\u53f0
p187
L405800L
tp188
assS'210911'
p189
(dp190
g11
(lp191
(V\u4e4c\u9f99\u575d\u9547
p192
L123003L
tp193
a(V\u6cb3\u897f\u9547
p194
L123003L
tp195
assS'330104'
p196
(dp197
g157
(lp198
(V\u5176\u4ed6\u4e0d\u9001
p199
L310095L
tp200
assS'330101'
p201
(dp202
g157
(lp203
(V\u6682\u505c
p204
L310059L
tp205
assS'350111'
p206
(dp207
g157
(lp208
(V\u5317\u5cf0
p209
L350058L
tp210
a(V\u8c61\u5cf0
p211
L350058L
tp212
a(V\u90e8\u961f
p213
L350058L
tp214
assS'330103'
p215
(dp216
g157
(lp217
(V\u5176\u4ed6\u4e0d\u9001
p218
L310049L
tp219
assS'410902'
p220
(dp221
g11
(lp222
(V\u9646\u96c6\u4e61
p223
L457500L
tp224
a(V\u5b5f\u697c\u4e61
p225
L457500L
tp226
a(V\u9f99\u738b\u5e84\u4e61
p227
L457500L
tp228
a(V\u767d\u8863\u9601\u4e61
p229
L457500L
tp230
a(V\u5f20\u5e84\u4e61
p231
L457500L
tp232
a(V\u9ad8\u7801\u5934\u4e61
p233
L457500L
tp234
a(V\u989c\u6751\u94fa\u4e61
p235
L457500L
tp236
a(V\u6768\u96c6\u4e61
p237
L457500L
tp238
a(V\u8f9b\u5e84\u4e61
p239
L457500L
tp240
a(V\u738b\u697c\u4e61
p241
L457500L
tp242
assS'410203'
p243
(dp244
g11
(lp245
(V\u6731\u4ed9\u9547
p246
L475001L
tp247
a(V\u5927\u674e\u5e84\u4e61
p248
L475001L
tp249
assS'370882'
p250
(dp251
g11
(lp252
(V\u592a\u9633\u7eb8\u4e1a\u96c6\u56e2
p253
L272000L
tp254
a(V\u94f6\u6cb3\u5de5\u4e1a\u56ed
p255
L272000L
tp256
assS'330109'
p257
(dp258
g11
(lp259
(V\u6625\u5149\u6751
p260
L330150L
tp261
a(V\u6625\u56ed\u6751
p262
L330150L
tp263
a(V\u6625\u96f7\u6751
p264
L330150L
tp265
assS'330108'
p266
(dp267
g157
(lp268
(V\u6ce8
p269
L311201L
tp270
a(V\u534e\u4e3a\u4e09\u5eb7
p271
L311201L
tp272
assS'371082'
p273
(dp274
g11
(lp275
(V\u6843\u56ed\u8857\u9053\u529e\u4e8b\u5904(\u5de5\u4e1a\u56ed
p276
L264309L
tp277
assS'320830'
p278
(dp279
g157
(lp280
(V\u6682\u505c
p281
L211701L
tp282
assS'360803'
p283
(dp284
g157
(lp285
(V\u5341\u4e09\u4e2d
p286
L343009L
tp287
assS'360802'
p288
(dp289
g3
(lp290
(V\u519b\u6c11\u8def
p291
L343003L
tp292
assS'440281'
p293
(dp294
g11
(lp295
(V\u957f\u6765\u9547
p296
L512009L
tp297
a(V\u5317\u4e61\u9547
p298
L512009L
tp299
a(V\u4e5d\u5cf0\u9547
p300
L512009L
tp301
a(V\u897f\u6c5f\u9547
p302
L512009L
tp303
a(V\u5927\u6e90\u9547
p304
L512009L
tp305
a(V\u4e94\u5c71\u9547
p306
L512009L
tp307
a(V\u4e50\u660c\u5e02\u7b2c\u4e8c\u4e2d\u5b66
p308
L512009L
tp309
a(V\u4e50\u660c\u5e02\u7b2c\u4e8c\u4eba\u6c11\u533b\u9662
p310
L512009L
tp311
a(V\u6885\u82b1\u9547
p312
L512009L
tp313
a(V\u79c0\u6c34\u9547
p314
L512009L
tp315
a(V\u9ec4\u5703\u9547
p316
L512009L
tp317
a(V\u6c99\u576a\u9547
p318
L512009L
tp319
a(V\u4e09\u6eaa\u9547
p320
L512009L
tp321
a(V\u5e86\u4e91\u9547
p322
L512009L
tp323
a(V\u4e91\u5ca9\u9547
p324
L512009L
tp325
a(V\u767d\u77f3\u9547
p326
L512009L
tp327
assS'410702'
p328
(dp329
g157
(lp330
(V\u5176\u4ed6\u4e0d\u9001
p331
L453012L
tp332
a(V\u5176\u4ed6\u4e0d\u9001
p333
L453015L
tp334
assS'440605'
p335
(dp336
g157
(lp337
(V\u6c99\u5c97
p338
L528294L
tp339
a(V\u7ea2\u5934\u5c97
p340
L528294L
tp341
a(V\u77f3\u5934\u5c97
p342
L528294L
tp343
a(V\u5176\u4ed6\u4e0d\u6d3e\u9001
p344
L528294L
tp345
a(V\u5176\u4ed6\u4e0d\u9001
p346
L528234L
tp347
a(V\u5176\u4ed6\u4e0d\u9001
p348
L528373L
tp349
a(V\u4e5d\u6c5f\u4e0b\u4e1c
p350
L528508L
tp351
a(V\u5927\u8c37
p352
L528508L
tp353
a(V\u72ee\u897f
p354
L528337L
tp355
a(V\u72ee\u5cad
p356
L528337L
tp357
a(V\u5176\u4ed6\u4e0d\u9001
p358
L528004L
tp359
a(V\u5176\u5b83\u4e0d\u6d3e\u9001
p360
L528239L
tp361
a(V\u5176\u5b83\u4e0d\u6536\u9001
p362
L528348L
tp363
a(V\u987a\u666f\u52a0\u6cb9\u7ad9
p364
L528248L
tp365
a(V\u6c99\u8d1d\u6536\u8d39\u7ad9
p366
L528248L
tp367
a(V\u987a\u666f\u9152\u5bb6
p368
L528248L
tp369
a(V\u5176\u4ed6\u4e0d\u9001
p370
L528004L
tp371
a(V\u72ee\u897f
p372
L528337L
tp373
a(V\u72ee\u5cad
p374
L528337L
tp375
assS'420111'
p376
(dp377
g157
(lp378
(V\u6b66\u660c\u76d1\u72f1
p379
L430064L
tp380
a(V\u767d\u6c99\u6d32\u6c34\u5382
p381
L430064L
tp382
assS'420116'
p383
(dp384
g157
(lp385
(V\u6b66\u6e56\u519c\u573a
p386
L430333L
tp387
a(V\u5927\u6f6d\u539f\u79cd\u573a
p388
L430333L
tp389
a(V\u5176\u5b83\u4e0d\u6d3e\u9001
p390
L430303L
tp391
assS'420117'
p392
(dp393
g157
(lp394
(V\u7ec4
p395
L430078L
tp396
a(V\u6e7e
p397
L430078L
tp398
a(V\u53ef\u901a\u77e5\u81ea\u63d0
p399
L430078L
tp400
a(V\u5907\u6ce8
p401
L430078L
tp402
assS'420115'
p403
(dp404
g157
(lp405
(V\u5341\u5b57\u5cad
p406
L430142L
tp407
a(V\u539f\u6b66\u660c\u7cae\u5e93
p408
L430142L
tp409
a(V\u6cb9\u5e93
p410
L430142L
tp411
assS'230921'
p412
(dp413
g157
(lp414
(V\u94c1\u897f\u4ee5\u897f
p415
L154500L
tp416
a(V\u4ebf\u8fbe
p417
L154500L
tp418
a(V\u671d\u4e2d
p419
L154500L
tp420
a(V\u9632\u75ab\u7ad9
p421
L154500L
tp422
assS'441802'
p423
(dp424
g157
(lp425
(V\u7b14\u67b6\u5c71
p426
L511582L
tp427
a(V\u98ce\u666f\u533a
p428
L511582L
tp429
a(V\u7ba1\u7406\u533a
p430
L511582L
tp431
a(V\u5176\u4ed6\u4e0d\u9001
p432
L511586L
tp433
assS'360981'
p434
(dp435
g11
(lp436
(V\u77ff\u52a1\u5c40
p437
L331100L
tp438
a(V\u77ff\u4e1a\u516c\u53f8
p439
L331100L
tp440
assS'360983'
p441
(dp442
g11
(lp443
(V\u84dd\u574a\u9547
p444
L330800L
tp445
a(V\u8377\u5cad\u9547
p446
L330800L
tp447
a(V\u9ec4\u6c99\u5c97\u9547
p448
L330800L
tp449
a(V\u72ec\u57ce\u9547
p450
L330800L
tp451
a(V\u592a\u9633\u9547
p452
L330800L
tp453
a(V\u5efa\u5c71\u9547
p454
L330800L
tp455
a(V\u7530\u5357\u9547
p456
L330800L
tp457
a(V\u76f8\u57ce\u9547
p458
L330800L
tp459
a(V\u7070\u57e0\u9547
p460
L330800L
tp461
a(V\u6768\u5729\u9547
p462
L330800L
tp463
a(V\u6751\u524d\u9547
p464
L330800L
tp465
a(V\u4f0d\u6865\u9547
p466
L330800L
tp467
a(V\u5927\u57ce\u9547
p468
L330800L
tp469
a(V\u4e0a\u6e56\u4e61
p470
L330800L
tp471
assS'421222'
p472
(dp473
g11
(lp474
(V\u4e94\u91cc\u9547
p475
L437400L
tp476
a(V\u9ea6\u5e02\u9547
p477
L437400L
tp478
a(V\u9a6c\u6e2f\u9547
p479
L437400L
tp480
a(V\u5858\u6e56\u9547
p481
L437400L
tp482
a(V\u6c99\u5806\u9547
p483
L437400L
tp484
a(V\u5317\u6e2f\u9547
p485
L437400L
tp486
a(V\u5927\u576a\u4e61
p487
L437400L
tp488
a(V\u9ec4\u888d\u4e61
p489
L437400L
tp490
assS'421221'
p491
(dp492
g11
(lp493
(V\u8212\u6865\u9547
p494
L437200L
tp495
assS'220623'
p496
(dp497
g157
(lp498
(V\u53e3\u5cb8
p499
L134400L
tp500
assS'620503'
p501
(dp502
g11
(lp503
(V\u7518\u6cc9\u9547
p504
L741004L
tp505
a(V\u6e2d\u5357\u9547
p506
L741004L
tp507
a(V\u4e1c\u5c94\u9547
p508
L741004L
tp509
a(V\u4e2d\u6ee9\u9547
p510
L741004L
tp511
a(V\u65b0\u9633\u9547
p512
L741004L
tp513
a(V\u5143\u9f99\u9547
p514
L741004L
tp515
a(V\u4f2f\u9633\u9547
p516
L741004L
tp517
a(V\u9ea6\u79ef\u9547
p518
L741004L
tp519
a(V\u82b1\u725b\u9547
p520
L741004L
tp521
a(V\u77f3\u4f5b\u4e61
p522
L741004L
tp523
a(V\u4e94\u9f99\u4e61
p524
L741004L
tp525
a(V\u7425\u73c0\u4e61
p526
L741004L
tp527
a(V\u515a\u5ddd\u4e61
p528
L741004L
tp529
a(V\u5229\u6865\u4e61
p530
L741004L
tp531
a(V\u51e4\u51f0\u4e61
p532
L741004L
tp533
a(V\u8857\u5b50\u4e61
p534
L741004L
tp535
assS'211003'
p536
(dp537
g11
(lp538
(V\u7f57\u5927\u53f0\u9547
p539
L111010L
tp540
a(V\u5c16\u5c71\u5b50\u6751
p541
L111010L
tp542
assS'370403'
p543
(dp544
g157
(lp545
(V\u5176\u5b83\u4e0d\u9001
p546
L277000L
tp547
a(V\u5176\u5b83\u4e0d\u9001
p548
L277000L
tp549
assS'420625'
p550
(dp551
g11
(lp552
(V\u77f3\u82b1\u9547
p553
L441700L
tp554
a(V\u5e99\u6ee9\u9547
p555
L441700L
tp556
a(V\u76db\u5eb7\u9547
p557
L441700L
tp558
a(V\u51b7\u96c6\u9547
p559
L441700L
tp560
a(V\u4e94\u5c71\u9547
p561
L441700L
tp562
a(V\u5357\u6cb3\u9547
p563
L441700L
tp564
a(V\u7d2b\u91d1\u9547
p565
L441700L
tp566
a(V\u8328\u6cb3\u9547
p567
L441700L
tp568
assS'230781'
p569
(dp570
g11
(lp571
(V\u53cc\u4e30\u9547
p572
L152500L
tp573
a(V\u6843\u5c71\u9547
p574
L152500L
tp575
a(V\u5e74\u4e30\u671d\u9c9c\u65cf\u4e61
p576
L152500L
tp577
a(V\u5de5\u519c\u4e61
p578
L152500L
tp579
assS'410403'
p580
(dp581
g11
(lp582
(V\u94c1\u5c71\u4e61
p583
L462500L
tp584
a(V\u6b66\u529f\u4e61
p585
L462500L
tp586
a(V\u67a3\u6797\u4e61
p587
L462500L
tp588
a(V\u516b\u53f0\u4e61
p589
L462500L
tp590
a(V\u5e99\u8857\u4e61
p591
L462500L
tp592
a(V\u6768\u5e84\u4e61
p593
L462500L
tp594
assS'230421'
p595
(dp596
g157
(lp597
(V\u5176\u5b83\u4e0d\u6d3e\u9001
p598
L154102L
tp599
assS'450125'
p600
(dp601
g11
(lp602
(V\u4ead\u4eae\u9547
p603
L530063L
tp604
a(V\u5df7\u8d24\u9547
p605
L530063L
tp606
a(V\u767d\u5729\u9547
p607
L530063L
tp608
a(V\u4e09\u91cc\u9547
p609
L530063L
tp610
a(V\u6f84\u6cf0\u4e61
p611
L530063L
tp612
a(V\u6728\u5c71\u4e61
p613
L530063L
tp614
a(V\u5510\u7ea2\u4e61
p615
L530063L
tp616
a(V\u9547\u5729\u7476\u65cf\u4e61
p617
L530063L
tp618
assS'210112'
p619
(dp620
g157
(lp621
(V\u5176\u5b83\u4e0d\u9001
p622
L110014L
tp623
a(V\u5176\u5b83\u4e0d\u9001
p624
L110035L
tp625
a(V\u6682\u505c
p626
L110049L
tp627
a(V\u6682\u505c
p628
L110056L
tp629
a(V\u5176\u4ed6\u4e0d\u9001
p630
L110065L
tp631
assS'421087'
p632
(dp633
g157
(lp634
(V\u8857\u6cb3\u5e02
p635
L434200L
tp636
assS'361123'
p637
(dp638
g11
(lp639
(V\u56db\u80a1\u6865\u4e61
p640
L334700L
tp641
a(V\u53cc\u660e\u9547
p642
L334700L
tp643
a(V\u5357\u5c71\u4e61
p644
L334700L
tp645
a(V\u767d\u4e91\u9547
p646
L334700L
tp647
a(V\u53e4\u57ce\u9547
p648
L334700L
tp649
a(V\u516d\u90fd\u4e61
p650
L334700L
tp651
a(V\u7fa4\u529b\u4e61
p652
L334700L
tp653
a(V\u534e\u6751\u4e61
p654
L334700L
tp655
a(V\u4ed9\u5ca9\u4e61
p656
L334700L
tp657
a(V\u5b98\u6eaa\u9547
p658
L334700L
tp659
a(V\u516b\u90fd\u4e61
p660
L334700L
tp661
a(V\u4e0b\u9547\u9547
p662
L334700L
tp663
a(V\u6587\u6210\u9547
p664
L334700L
tp665
a(V\u6a2a\u8857\u9547
p666
L334700L
tp667
a(V\u59bc\u59c6\u9547
p668
L334700L
tp669
a(V\u4e0b\u5858\u4e61
p670
L334700L
tp671
a(V\u4e34\u6e56\u9547
p672
L334700L
tp673
a(V\u7ae5\u574a\u4e61
p674
L334700L
tp675
a(V\u6a1f\u6751\u9547
p676
L334700L
tp677
a(V\u56db\u80a1\u6865\u4e61
p678
L334700L
tp679
a(V\u53cc\u660e\u9547
p680
L334700L
tp681
a(V\u5357\u5c71\u4e61
p682
L334700L
tp683
a(V\u767d\u4e91\u9547
p684
L334700L
tp685
a(V\u53e4\u57ce\u9547
p686
L334700L
tp687
a(V\u516d\u90fd\u4e61
p688
L334700L
tp689
a(V\u7fa4\u529b\u4e61
p690
L334700L
tp691
a(V\u534e\u6751\u4e61
p692
L334700L
tp693
a(V\u4ed9\u5ca9\u4e61
p694
L334700L
tp695
a(V\u5b98\u6eaa\u9547
p696
L334700L
tp697
a(V\u516b\u90fd\u4e61
p698
L334700L
tp699
a(V\u4e0b\u9547\u9547
p700
L334700L
tp701
a(V\u6587\u6210\u9547
p702
L334700L
tp703
a(V\u6a2a\u8857\u9547
p704
L334700L
tp705
a(V\u59bc\u59c6\u9547
p706
L334700L
tp707
a(V\u4e0b\u5858\u4e61
p708
L334700L
tp709
a(V\u4e34\u6e56\u9547
p710
L334700L
tp711
a(V\u7ae5\u574a\u4e61
p712
L334700L
tp713
a(V\u6a1f\u6751\u9547
p714
L334700L
tp715
assS'420502'
p716
(dp717
g11
(lp718
(V\u5b9c\u5316\u96c6\u56e2
p719
L443007L
tp720
assS'120223'
p721
(dp722
g11
(lp723
(V\u53f0\u5934\u9547
p724
L300143L
tp725
a(V\u738b\u53e3\u9547
p726
L300143L
tp727
a(V\u5510\u5b98\u5c6f\u9547
p728
L302000L
tp729
a(V\u4e2d\u65fa\u9547
p730
L302000L
tp731
a(V\u897f\u7fdf\u5e84\u9547
p732
L302000L
tp733
assS'120221'
p734
(dp735
g11
(lp736
(V\u8d38\u6613\u5f00\u53d1\u533a
p737
L300148L
tp738
a(V\u8d38\u6613\u5f00\u53d1\u533a
p739
L300148L
tp740
assS'320481'
p741
(dp742
g157
(lp743
(V\u76d1\u72f1
p744
L213300L
tp745
a(V\u90e8\u961f
p746
L213300L
tp747
assS'222426'
p748
(dp749
g11
(lp750
(V\u677e\u6c5f\u9547
p751
L133600L
tp752
a(V\u77f3\u95e8\u9547
p753
L133600L
tp754
a(V\u4eae\u5175\u9547
p755
L133600L
tp756
a(V\u4e24\u6c5f\u9547
p757
L133600L
tp758
a(V\u4e8c\u9053\u9547
p759
L133600L
tp760
a(V\u4e07\u5b9d\u9547
p761
L133600L
tp762
a(V\u65b0\u5408\u4e61
p763
L133600L
tp764
a(V\u6c38\u5e86\u4e61
p765
L133600L
tp766
a(V\u5c0f\u6c99\u6cb3\u4e61
p767
L133600L
tp768
assS'320482'
p769
(dp770
g157
(lp771
(V\u7af9\u7ba6\u76d1\u72f1
p772
L213200L
tp773
a(V\u8305\u5c71\u98ce\u666f\u533a
p774
L213200L
tp775
a(V\u8305\u5c71\u7684\u8336\u573a
p776
L213200L
tp777
assS'431222'
p778
(dp779
g11
(lp780
(V\u767d\u7530\u4e61
p781
L419600L
tp782
assS'420528'
p783
(dp784
g11
(lp785
(V\u8d44\u4e18\u9547
p786
L443500L
tp787
a(V\u6e14\u5ce1\u53e3\u9547
p788
L443500L
tp789
a(V\u6994\u576a\u9547
p790
L443500L
tp791
a(V\u706b\u70e7\u576a\u9547
p792
L443500L
tp793
a(V\u8d3a\u5bb6\u576a\u9547
p794
L443500L
tp795
a(V\u5927\u5830\u9547
p796
L443500L
tp797
a(V\u9e2d\u5b50\u53e3\u9547
p798
L443500L
tp799
a(V\u78e8\u77f3\u9547
p800
L443500L
tp801
assS'610501'
p802
(dp803
g157
(lp804
(V\u5176\u5b83\u4e0d\u6d3e\u9001
p805
L714003L
tp806
assS'610502'
p807
(dp808
g11
(lp809
(V\u6e2d\u5317\u5de5\u4e1a\u56ed\u533a
p810
L714000L
tp811
assS'222404'
p812
(dp813
g11
(lp814
(V\u677f\u77f3\u9547
p815
L133301L
tp816
assS'222405'
p817
(dp818
g157
(lp819
(V\u53ca\u5176\u5b83\u4e0d\u9001
p820
L133400L
tp821
assS'350602'
p822
(dp823
g11
(lp824
(V\u9a6c\u94fa\u4e61
p825
L363005L
tp826
a(V\u548c\u5e73\u4e61
p827
L363005L
tp828
a(V\u4e1c\u53a6\u9547
p829
L363005L
tp830
a(V\u5cdb\u5c7f\u9547
p831
L363005L
tp832
a(V\u767d\u6c34\u9547
p833
L363102L
tp834
a(V\u4e1c\u6cd7\u4e61
p835
L363102L
tp836
assS'371102'
p837
(dp838
g157
(lp839
(V\u94a2\u5382
p840
L276803L
tp841
assS'411502'
p842
(dp843
g11
(lp844
(V\u767d\u5e97\u4e61
p845
L465150L
tp846
a(V\u4ec1\u548c\u9547
p847
L465150L
tp848
a(V\u53cc\u67f3\u6811\u9547
p849
L465150L
tp850
a(V\u4f20\u6d41\u5e97\u4e61
p851
L465150L
tp852
a(V\u4f1e\u9642\u5bfa\u9547
p853
L465150L
tp854
a(V\u535c\u5854\u96c6\u9547
p855
L465150L
tp856
a(V\u4ed8\u5e97\u9547
p857
L465150L
tp858
a(V\u8e05\u5b5c\u9547
p859
L465150L
tp860
a(V\u6843\u6797\u94fa\u9547
p861
L465150L
tp862
a(V\u9ec4\u5bfa\u5c97\u9547
p863
L465150L
tp864
a(V\u6c5f\u5bb6\u96c6\u9547
p865
L465150L
tp866
a(V\u9b4f\u5c97\u4e61
p867
L465150L
tp868
a(V\u5f20\u96c6\u4e61
p869
L465150L
tp870
a(V\u6765\u9f99\u4e61
p871
L465150L
tp872
a(V\u9686\u53e4\u4e61
p873
L465150L
tp874
a(V\u6de1\u5e97\u4e61
p875
L465150L
tp876
a(V\u4e0a\u6cb9\u5c97\u4e61
p877
L465150L
tp878
assS'150784'
p879
(dp880
g157
(lp881
(V\u5176\u5b83\u4e0d\u9001
p882
L922250L
tp883
a(V\u5176\u5b83\u4e0d\u9001
p884
L922250L
tp885
assS'150783'
p886
(dp887
g157
(lp888
(V\u6751\u4e0d\u6d3e\u9001
p889
L921005L
tp890
assS'640104'
p891
(dp892
g157
(lp893
(V\u9ec4\u7f8a\u6ee9\u519c\u573a
p894
L750100L
tp895
a(V\u90e8\u961f
p896
L750002L
tp897
a(V\u5176\u4ed6\u4e0d\u6d3e\u9001
p898
L750005L
tp899
a(V\u5176\u4ed6\u4e0d\u9001
p900
L750006L
tp901
a(V\u5176\u5b83\u4e0d\u6d3e\u9001
p902
L750001L
tp903
assS'211103'
p904
(dp905
g157
(lp906
(V\u5176\u4ed6\u4e0d\u9001
p907
L124109L
tp908
assS'211101'
p909
(dp910
g157
(lp911
(V\u5176\u4ed6\u4e0d\u9001
p912
L124109L
tp913
assS'150602'
p914
(dp915
g157
(lp916
(V\u51c6\u683c\u5c14\u65d7
p917
L917000L
tp918
a(V\u9102\u6258\u514b\u524d\u65d7
p919
L917000L
tp920
a(V\u9102\u6258\u514b\u65d7
p921
L917000L
tp922
a(V\u676d\u9526\u65d7
p923
L917000L
tp924
assS'441202'
p925
(dp926
g157
(lp927
(V\u5176\u4ed6\u4e0d\u9001
p928
L526001L
tp929
a(V\u5176\u4ed6\u4e0d\u9001
p930
L526004L
tp931
a(V\u5176\u4ed6\u4e0d\u9001
p932
L526007L
tp933
a(V\u6682\u505c
p934
L526014L
tp935
assS'360502'
p936
(dp937
g11
(lp938
(V\u6c34\u5317\u9547
p939
L336525L
tp940
a(V\u4e0b\u6751\u9547
p941
L336525L
tp942
a(V\u826f\u5c71\u9547
p943
L336525L
tp944
a(V\u7f57\u574a\u9547
p945
L336525L
tp946
a(V\u59da\u5729\u9547
p947
L336525L
tp948
a(V\u73e0\u73ca\u9547
p949
L336525L
tp950
a(V\u89c2\u5de2\u9547
p951
L336525L
tp952
a(V\u6b27\u91cc\u9547
p953
L336525L
tp954
a(V\u9e44\u5c71\u4e61
p955
L336525L
tp956
a(V\u4eba\u548c\u4e61
p957
L336525L
tp958
a(V\u754c\u6c34\u4e61
p959
L336525L
tp960
a(V\u5357\u5b89\u4e61
p961
L336525L
tp962
a(V\u65b0\u6eaa\u4e61
p963
L336525L
tp964
assS'330327'
p965
(dp966
g11
(lp967
(V\u62ec\u5c71\u4e61
p968
L325800L
tp969
assS'330326'
p970
(dp971
g11
(lp972
(V\u9e64\u6eaa\u9547
p973
L325400L
tp974
a(V\u51e4\u5367\u9547
p975
L325400L
tp976
a(V\u95f9\u6751\u4e61
p977
L325400L
tp978
a(V\u6653\u5751\u4e61
p979
L325400L
tp980
a(V\u6843\u6e90\u4e61
p981
L325400L
tp982
a(V\u5357\u6e56\u4e61
p983
L325400L
tp984
a(V\u9f99\u5c3e\u4e61
p985
L325400L
tp986
a(V\u5434\u579f\u4e61
p987
L325400L
tp988
a(V\u6000\u6eaa\u4e61
p989
L325400L
tp990
a(V\u6885\u6eaa\u4e61
p991
L325400L
tp992
a(V\u6885\u6e90\u4e61
p993
L325400L
tp994
a(V\u51e4\u5de2\u4e61
p995
L325400L
tp996
a(V\u7ef4\u65b0\u4e61
p997
L325400L
tp998
a(V\u671d\u9633\u4e61
p999
L325400L
tp1000
a(V\u897f\u6e7e\u4e61
p1001
L325400L
tp1002
a(V\u987a\u6eaa\u9547
p1003
L325400L
tp1004
a(V\u9752\u8857\u7572\u65cf\u4e61
p1005
L325400L
tp1006
assS'360111'
p1007
(dp1008
g157
(lp1009
(V\u6682\u505c
p1010
L330029L
tp1011
a(V\u6682\u505c
p1012
L330035L
tp1013
assS'440304'
p1014
(dp1015
g157
(lp1016
(V\u6682\u505c
p1017
L518722L
tp1018
assS'440307'
p1019
(dp1020
g157
(lp1021
(V\u6682\u505c
p1022
L518689L
tp1023
a(V\u65e0
p1024
L518876L
tp1025
assS'440306'
p1026
(dp1027
g157
(lp1028
(V\u8d5b\u9a6c\u573a\u4e0d\u9001
p1029
L518107L
tp1030
a(V\u6682\u505c
p1031
L518232L
tp1032
a(V\u65e0
p1033
L518150L
tp1034
a(V\u65e0
p1035
L518164L
tp1036
a(V\u6682\u505c
p1037
L518188L
tp1038
a(V\u6682\u505c
p1039
L518273L
tp1040
a(V\u6682\u505c
p1041
L518277L
tp1042
a(V\u5176\u4ed6\u4e0d\u6d3e\u9001
p1043
L518310L
tp1044
a(V\u6682\u505c
p1045
L518413L
tp1046
a(V\u6682\u505c
p1047
L518580L
tp1048
a(V\u6682\u505c
p1049
L518581L
tp1050
a(V\u65e0
p1051
L518088L
tp1052
a(V\u5176\u4ed6\u4e0d\u9001
p1053
L518099L
tp1054
a(V\u5176\u4ed6\u4e0d\u9001
p1055
L518471L
tp1056
a(V\u5176\u4ed6\u4e0d\u9001
p1057
L518472L
tp1058
a(V\u6682\u505c
p1059
L518515L
tp1060
a(V\u6682\u505c
p1061
L518594L
tp1062
a(V\u6682\u505c
p1063
L518601L
tp1064
a(V\u6682\u505c
p1065
L518627L
tp1066
a(V\u6682\u505c
p1067
L518642L
tp1068
a(V\u6682\u505c
p1069
L518650L
tp1070
a(V\u65e0
p1071
L518651L
tp1072
a(V\u65e0
p1073
L518654L
tp1074
a(V\u6682\u505c
p1075
L518655L
tp1076
a(V\u6682\u505c
p1077
L518659L
tp1078
a(V\u65e0
p1079
L518661L
tp1080
a(V\u6682\u505c
p1081
L518664L
tp1082
a(V\u65e0
p1083
L518665L
tp1084
a(V\u6682\u505c
p1085
L518672L
tp1086
a(V\u6682\u505c
p1087
L518673L
tp1088
a(V\u6682\u505c
p1089
L518758L
tp1090
a(V\u6682\u505c
p1091
L518759L
tp1092
assS'530381'
p1093
(dp1094
g11
(lp1095
(V\u6765\u5bbe\u9547
p1096
L655400L
tp1097
a(V\u5018\u5858\u9547
p1098
L655400L
tp1099
a(V\u7530\u575d\u9547
p1100
L655400L
tp1101
a(V\u677f\u6865\u9547
p1102
L655400L
tp1103
a(V\u7f8a\u573a\u9547
p1104
L655400L
tp1105
a(V\u683c\u5b9c\u9547
p1106
L655400L
tp1107
a(V\u9f99\u573a\u9547
p1108
L655400L
tp1109
a(V\u6d77\u5cb1\u9547
p1110
L655400L
tp1111
a(V\u843d\u6c34\u9547
p1112
L655400L
tp1113
a(V\u52a1\u5fb7\u9547
p1114
L655400L
tp1115
a(V\u9f99\u6f6d\u9547
p1116
L655400L
tp1117
a(V\u5b9d\u5c71\u9547
p1118
L655400L
tp1119
a(V\u4e1c\u5c71\u9547
p1120
L655400L
tp1121
a(V\u70ed\u6c34\u9547
p1122
L655400L
tp1123
a(V\u5f97\u7eff\u4e61
p1124
L655400L
tp1125
a(V\u666e\u7acb\u4e61
p1126
L655400L
tp1127
a(V\u897f\u6cfd\u4e61
p1128
L655400L
tp1129
a(V\u6768\u67f3\u4e61
p1130
L655400L
tp1131
a(V\u53cc\u6cb3\u4e61
p1132
L655400L
tp1133
a(V\u4e50\u4e30\u4e61
p1134
L655400L
tp1135
a(V\u6587\u5174\u4e61
p1136
L655400L
tp1137
a(V\u963f\u90fd\u4e61
p1138
L655400L
tp1139
assS'512081'
p1140
(dp1141
g11
(lp1142
(V\u901a\u6750\u5b9e\u9a8c\u5b66\u6821
p1143
L641400L
tp1144
a(V\u6cb3\u4e1c\u9ad8\u7ea7\u804c\u4e1a\u6280\u672f\u5b66\u6821
p1145
L641400L
tp1146
a(V\u7279\u6b8a\u5b66\u6821
p1147
L641400L
tp1148
a(V\u77f3\u6865\u5927\u5730\u5de5\u4e1a\u56ed
p1149
L641400L
tp1150
assS'421003'
p1151
(dp1152
g11
(lp1153
(V\u674e\u57e0\u9547
p1154
L434027L
tp1155
a(V\u592a\u6e56\u9547
p1156
L434027L
tp1157
a(V\u674e\u57e0\u9547
p1158
L434027L
tp1159
a(V\u592a\u6e56\u9547
p1160
L434027L
tp1161
assS'421002'
p1162
(dp1163
g11
(lp1164
(V\u674e\u57e0\u9547
p1165
L434000L
tp1166
assS'440883'
p1167
(dp1168
g11
(lp1169
(V\u957f\u5c90\u9547
p1170
L524500L
tp1171
a(V\u6a1f\u94fa\u9547
p1172
L524500L
tp1173
a(V\u6d45\u6c34\u9547
p1174
L524500L
tp1175
a(V\u738b\u6751\u6e2f\u9547
p1176
L524500L
tp1177
a(V\u8983\u5df4\u9547
p1178
L524500L
tp1179
a(V\u5170\u77f3\u9547
p1180
L524500L
tp1181
a(V\u5858\u7f00\u9547
p1182
L524500L
tp1183
a(V\u632f\u6587\u9547
p1184
L524500L
tp1185
a(V\u957f\u5c90\u9547
p1186
L524500L
tp1187
a(V\u6a1f\u94fa\u9547
p1188
L524500L
tp1189
a(V\u6d45\u6c34\u9547
p1190
L524500L
tp1191
a(V\u738b\u6751\u6e2f\u9547
p1192
L524500L
tp1193
a(V\u8983\u5df4\u9547
p1194
L524500L
tp1195
a(V\u5170\u77f3\u9547
p1196
L524500L
tp1197
a(V\u5858\u7f00\u9547
p1198
L524500L
tp1199
a(V\u632f\u6587\u9547
p1200
L524500L
tp1201
assS'513401'
p1202
(dp1203
g157
(lp1204
(V\u51c9\u5c71\u76d1\u72f1
p1205
L615006L
tp1206
assS'411202'
p1207
(dp1208
g157
(lp1209
(V\u6234\u5361\u8f6e\u5382
p1210
L472002L
tp1211
assS'440881'
p1212
(dp1213
g157
(lp1214
(V\u5357\u5c6f\u6751\u5185
p1215
L524400L
tp1216
assS'130429'
p1217
(dp1218
g11
(lp1219
(V\u6c38\u7f8e\u5bb6\u56ed
p1220
L957150L
tp1221
a(V\u65bd\u5e84\u6751
p1222
L957150L
tp1223
a(V\u82d7\u5e84\u6751
p1224
L957150L
tp1225
a(V\u6bb5\u5e84\u6751
p1226
L957150L
tp1227
a(V\u75be\u63a7\u4e2d\u5fc3\u80b2\u82f1\u5b66\u6821
p1228
L957150L
tp1229
a(V\u5c0f\u533a
p1230
L957150L
tp1231
a(V\u516c\u5b89\u5c40
p1232
L957150L
tp1233
assS'130427'
p1234
(dp1235
g11
(lp1236
(V\u65f6\u6751\u8425\u4e61
p1237
L956500L
tp1238
a(V\u53f0\u57ce\u4e61
p1239
L956500L
tp1240
a(V\u90fd\u515a\u4e61
p1241
L956500L
tp1242
a(V\u8f9b\u5e84\u8425\u4e61
p1243
L956500L
tp1244
a(V\u82b1\u5b98\u8425\u4e61
p1245
L956500L
tp1246
a(V\u5357\u57ce\u4e61
p1247
L956500L
tp1248
a(V\u9676\u6cc9\u4e61
p1249
L956500L
tp1250
a(V\u8def\u6751\u8425\u4e61
p1251
L956500L
tp1252
a(V\u897f\u56fa\u4e49\u4e61
p1253
L956500L
tp1254
a(V\u8d3e\u74a7\u4e61
p1255
L956500L
tp1256
a(V\u6797\u5766\u9547
p1257
L956500L
tp1258
a(V\u89c2\u53f0\u9547
p1259
L956500L
tp1260
a(V\u9ad8\u81fe\u9547
p1261
L956500L
tp1262
a(V\u5cb3\u57ce\u9547
p1263
L956500L
tp1264
a(V\u8bb2\u6b66\u57ce\u9547
p1265
L956500L
tp1266
a(V\u767d\u571f\u9547
p1267
L956500L
tp1268
a(V\u9ec4\u6c99\u9547
p1269
L956500L
tp1270
assS'130927'
p1271
(dp1272
g157
(lp1273
(V\u5176\u5b83\u4e0d\u9001
p1274
L961501L
tp1275
a(V\u5176\u5b83\u4e0d\u9001
p1276
L961501L
tp1277
a(V\u5176\u5b83\u4e0d\u9001
p1278
L961501L
tp1279
assS'430408'
p1280
(dp1281
g157
(lp1282
(V\u539f\u519c\u79d1\u6240
p1283
L421300L
tp1284
assS'370213'
p1285
(dp1286
g157
(lp1287
(V\u6682\u505c
p1288
L266094L
tp1289
assS'530522'
p1290
(dp1291
g157
(lp1292
(V\u5927\u4f5b\u5bfa
p1293
L679100L
tp1294
a(V\u897f\u5c71\u575d
p1295
L679100L
tp1296
a(V\u5927\u725b\u573a
p1297
L679100L
tp1298
a(V\u4e16\u7eaa\u7ecf\u6e90
p1299
L679100L
tp1300
assS'450902'
p1301
(dp1302
g11
(lp1303
(V\u4f53\u80b2\u4e2d\u5fc3
p1304
L537004L
tp1305
a(V\u82f1\u624d\u4e2d\u5b66
p1306
L537004L
tp1307
assS'331023'
p1308
(dp1309
g157
(lp1310
(V\u6dee\u5cad
p1311
L317200L
tp1312
a(V\u4ead\u5934
p1313
L317200L
tp1314
assS'230602'
p1315
(dp1316
g157
(lp1317
(V\u4ee3\u7406\u70b9\u4f4d\u7f6e
p1318
L163452L
tp1319
a(V\u4e0d\u6d3e\u9001\u8303\u56f4
p1320
L163452L
tp1321
assS'321284'
p1322
(dp1323
g157
(lp1324
(V\u6bcf\u5468\u4e00
p1325
L225500L
tp1326
a(V\u4e09
p1327
L225500L
tp1328
a(V\u4e94\u9001
p1329
L225500L
tp1330
assS'510903'
p1331
(dp1332
g11
(lp1333
(V\u9686\u76db\u9547
p1334
L629300L
tp1335
a(V\u56de\u9a6c\u9547
p1336
L629300L
tp1337
a(V\u5929\u4fdd\u9547
p1338
L629300L
tp1339
a(V\u6cb3\u8fb9\u9547
p1340
L629300L
tp1341
a(V\u5353\u7b52\u4e95\u9547
p1342
L629300L
tp1343
a(V\u7389\u5cf0\u9547
p1344
L629300L
tp1345
a(V\u8c61\u5c71\u9547
p1346
L629300L
tp1347
a(V\u91d1\u5143\u4e61
p1348
L629300L
tp1349
a(V\u667a\u6c34\u4e61
p1350
L629300L
tp1351
a(V\u77bf\u6cb3\u4e61
p1352
L629200L
tp1353
a(V\u67f3\u6811\u9547
p1354
L629200L
tp1355
a(V\u6cb1\u724c\u5de5\u4e1a\u56ed
p1356
L629200L
tp1357
a(V\u94f6\u534e\u5de5\u4e1a\u56ed
p1358
L629200L
tp1359
a(V\u592a\u4e59\u9547
p1360
L629200L
tp1361
a(V\u91d1\u5bb6\u9547
p1362
L629200L
tp1363
a(V\u5e7f\u5174\u9547
p1364
L629200L
tp1365
a(V\u4e07\u6797\u4e61
p1366
L629200L
tp1367
a(V\u5927\u4e8e\u9547
p1368
L629200L
tp1369
a(V\u5929\u4ed9\u9547
p1370
L629200L
tp1371
a(V\u4e1c\u5cb3\u4e61
p1372
L629200L
tp1373
a(V\u4ec1\u548c\u9547
p1374
L629200L
tp1375
a(V\u91d1\u5bb6\u9547
p1376
L629200L
tp1377
a(V\u6d0b\u6eaa\u9547
p1378
L629200L
tp1379
a(V\u9752\u63d0\u4e61
p1380
L629200L
tp1381
a(V\u65b0\u4f1a\u9547
p1382
L629100L
tp1383
a(V\u6587\u4e95\u9547
p1384
L629100L
tp1385
a(V\u660e\u6708\u9547
p1386
L629100L
tp1387
a(V\u5e38\u4e50\u9547
p1388
L629100L
tp1389
a(V\u5929\u798f\u9547
p1390
L629100L
tp1391
a(V\u7ea2\u6c5f\u9547
p1392
L629100L
tp1393
a(V\u5b9d\u68b5\u9547
p1394
L629100L
tp1395
a(V\u5927\u77f3\u9547
p1396
L629100L
tp1397
a(V\u5409\u7965\u9547
p1398
L629100L
tp1399
a(V\u9e23\u51e4\u9547
p1400
L629100L
tp1401
a(V\u4efb\u9686\u9547
p1402
L629100L
tp1403
a(V\u4e09\u51e4\u9547
p1404
L629100L
tp1405
a(V\u9ad8\u576a\u9547
p1406
L629100L
tp1407
a(V\u84ec\u5357\u9547
p1408
L629100L
tp1409
assS'321281'
p1410
(dp1411
g157
(lp1412
(V\u6d3e\u9001
p1413
L225700L
tp1414
assS'321282'
p1415
(dp1416
g157
(lp1417
(V\u9020\u8239\u5382
p1418
L214500L
tp1419
assS'321283'
p1420
(dp1421
g11
(lp1422
(V\u5e7f\u9675\u9547
p1423
L225400L
tp1424
a(V\u8001\u53f6\u4e61
p1425
L225400L
tp1426
a(V\u5927\u751f\u5f00\u53d1\u533a
p1427
L225400L
tp1428
assS'370282'
p1429
(dp1430
g11
(lp1431
(V\u4e30\u57ce\u9547
p1432
L266200L
tp1433
a(V\u91d1\u53e3\u9547
p1434
L266200L
tp1435
a(V\u738b\u6751\u9547
p1436
L266200L
tp1437
a(V\u7075\u5c71\u9547
p1438
L266200L
tp1439
a(V\u6bb5\u6cca\u5c9a\u9547
p1440
L266200L
tp1441
a(V\u4e03\u7ea7\u9547
p1442
L266200L
tp1443
a(V\u5c99\u5c71\u9547
p1444
L266200L
tp1445
a(V\u534e\u5c71\u9547
p1446
L266200L
tp1447
a(V\u7530\u6a2a\u9547
p1448
L266200L
tp1449
a(V\u5357\u6cc9\u9547
p1450
L266200L
tp1451
a(V\u5e97\u96c6\u9547
p1452
L266200L
tp1453
a(V\u74e6\u683c\u5e84\u4e61
p1454
L266200L
tp1455
a(V\u957f\u76f4\u9547
p1456
L266200L
tp1457
a(V\u79fb\u98ce\u9547
p1458
L266200L
tp1459
a(V\u5218\u5bb6\u5e84\u9547
p1460
L266200L
tp1461
assS'370281'
p1462
(dp1463
g157
(lp1464
(V\u91cc\u5c94
p1465
L266300L
tp1466
a(V\u6d0b\u6cb3
p1467
L266300L
tp1468
assS'231282'
p1469
(dp1470
g11
(lp1471
(V\u6210\u798f\u96c6\u56e2
p1472
L150007L
tp1473
a(V\u660c\u4e94\u9547
p1474
L150007L
tp1475
a(V\u5b8b\u7ad9\u9547
p1476
L150007L
tp1477
a(V\u56db\u7ad9\u9547
p1478
L150007L
tp1479
a(V\u5c1a\u5bb6\u9547
p1480
L150007L
tp1481
a(V\u59dc\u5bb6\u9547
p1482
L150007L
tp1483
a(V\u91cc\u6728\u5e97\u9547
p1484
L150007L
tp1485
a(V\u6d9d\u6d32\u9547
p1486
L150007L
tp1487
a(V\u4e94\u91cc\u660e\u9547
p1488
L150007L
tp1489
a(V\u9ece\u660e\u9547
p1490
L150007L
tp1491
a(V\u6d2a\u6cb3\u4e61
p1492
L150007L
tp1493
a(V\u8dc3\u8fdb\u4e61
p1494
L150007L
tp1495
a(V\u5fb7\u660c\u4e61
p1496
L150007L
tp1497
a(V\u5411\u9633\u4e61
p1498
L150007L
tp1499
a(V\u5b89\u6c11\u4e61
p1500
L150007L
tp1501
a(V\u5ba3\u5316\u4e61
p1502
L150007L
tp1503
a(V\u592a\u5e73\u4e61
p1504
L150007L
tp1505
a(V\u897f\u516b\u91cc\u4e61
p1506
L150007L
tp1507
a(V\u660e\u4e45\u4e61
p1508
L150007L
tp1509
a(V\u6d77\u57ce\u4e61
p1510
L150007L
tp1511
a(V\u4e1c\u53d1\u4e61
p1512
L150007L
tp1513
assS'231283'
p1514
(dp1515
g157
(lp1516
(V\u6682\u505c
p1517
L152007L
tp1518
assS'370284'
p1519
(dp1520
g11
(lp1521
(V\u7405\u740a\u9547
p1522
L266400L
tp1523
a(V\u5927\u573a\u9547
p1524
L266400L
tp1525
a(V\u5927\u6751\u9547
p1526
L266400L
tp1527
a(V\u516d\u6c6a\u9547
p1528
L266400L
tp1529
a(V\u5f20\u5bb6\u697c\u9547
p1530
L266400L
tp1531
a(V\u6d77\u9752\u9547
p1532
L266400L
tp1533
a(V\u5b9d\u5c71\u9547
p1534
L266400L
tp1535
a(V\u85cf\u5357\u9547
p1536
L266400L
tp1537
assS'210311'
p1538
(dp1539
g157
(lp1540
(V\u7b14\u7ba1\u5821
p1541
L114007L
tp1542
a(V\u5176\u4ed6\u4e0d\u9001
p1543
L114020L
tp1544
assS'350583'
p1545
(dp1546
g11
(lp1547
(V\u4e1c\u7530\u9547
p1548
L362300L
tp1549
a(V\u7fd4\u4e91\u9547
p1550
L362300L
tp1551
a(V\u5706\u7f8e\u5de5\u4e1a\u533a
p1552
L362301L
tp1553
assS'350582'
p1554
(dp1555
g157
(lp1556
(V\u6e2f\u53e3
p1557
L362203L
tp1558
a(V\u7801\u5934
p1559
L362203L
tp1560
a(V\u5176\u4ed6\u4e0d\u9001
p1561
L362213L
tp1562
a(V\u5176\u4ed6\u4e0d\u9001
p1563
L362215L
tp1564
assS'330824'
p1565
(dp1566
g11
(lp1567
(V\u9a6c\u91d1\u9547
p1568
L324300L
tp1569
a(V\u6751\u5934\u9547
p1570
L324300L
tp1571
a(V\u6c60\u6dee\u9547
p1572
L324300L
tp1573
a(V\u6850\u6751\u9547
p1574
L324300L
tp1575
a(V\u6768\u6797\u9547
p1576
L324300L
tp1577
a(V\u82cf\u5e84\u9547
p1578
L324300L
tp1579
a(V\u9f50\u6eaa\u9547
p1580
L324300L
tp1581
a(V\u6797\u5c71\u4e61
p1582
L324300L
tp1583
a(V\u97f3\u5751\u4e61
p1584
L324300L
tp1585
a(V\u4e2d\u6751\u4e61
p1586
L324300L
tp1587
a(V\u957f\u8679\u4e61
p1588
L324300L
tp1589
a(V\u5f20\u6e7e\u4e61
p1590
L324300L
tp1591
a(V\u4f55\u7530\u4e61
p1592
L324300L
tp1593
a(V\u5858\u575e\u4e61
p1594
L324300L
tp1595
a(V\u91d1\u6751\u4e61
p1596
L324300L
tp1597
a(V\u9a6c\u91d1\u9547
p1598
L324300L
tp1599
a(V\u6751\u5934\u9547
p1600
L324300L
tp1601
a(V\u6c60\u6dee\u9547
p1602
L324300L
tp1603
a(V\u6850\u6751\u9547
p1604
L324300L
tp1605
a(V\u6768\u6797\u9547
p1606
L324300L
tp1607
a(V\u82cf\u5e84\u9547
p1608
L324300L
tp1609
a(V\u9f50\u6eaa\u9547
p1610
L324300L
tp1611
a(V\u6797\u5c71\u4e61
p1612
L324300L
tp1613
a(V\u97f3\u5751\u4e61
p1614
L324300L
tp1615
a(V\u4e2d\u6751\u4e61
p1616
L324300L
tp1617
a(V\u957f\u8679\u4e61
p1618
L324300L
tp1619
a(V\u5f20\u6e7e\u4e61
p1620
L324300L
tp1621
a(V\u4f55\u7530\u4e61
p1622
L324300L
tp1623
a(V\u5858\u575e\u4e61
p1624
L324300L
tp1625
a(V\u91d1\u6751\u4e61
p1626
L324300L
tp1627
assS'130902'
p1628
(dp1629
g157
(lp1630
(V\u5176\u5b83\u4e0d\u9001
p1631
L961501L
tp1632
a(V\u5176\u4ed6\u4e0d\u9001
p1633
L961004L
tp1634
a(V\u5176\u4ed6\u4e0d\u9001
p1635
L961004L
tp1636
a(V\u5176\u4ed6\u4e0d\u9001
p1637
L961004L
tp1638
a(V\u5176\u4ed6\u4e0d\u9001
p1639
L961004L
tp1640
assS'420704'
p1641
(dp1642
g11
(lp1643
(V\u675c\u5c71\u9547
p1644
L436100L
tp1645
a(V\u65b0\u5e99\u9547
p1646
L436100L
tp1647
a(V\u6768\u53f6\u9547
p1648
L436100L
tp1649
a(V\u78a7\u77f3\u6e21\u9547
p1650
L436100L
tp1651
a(V\u6c40\u7956\u9547
p1652
L436100L
tp1653
a(V\u71d5\u77f6\u9547
p1654
L436100L
tp1655
a(V\u957f\u6e2f\u9547
p1656
L436100L
tp1657
assS'420701'
p1658
(dp1659
g11
(lp1660
(V\u5927\u6e7e\u4e61
p1661
L436101L
tp1662
assS'360203'
p1663
(dp1664
g157
(lp1665
(V\u53ef\u8054\u7cfb\u81ea\u63d0
p1666
L333004L
tp1667
assS'130682'
p1668
(dp1669
g157
(lp1670
(V\u5176\u5b83\u4e0d\u9001
p1671
L973000L
tp1672
assS'440608'
p1673
(dp1674
g157
(lp1675
(V\u5927\u8c37\u7ba1\u7406\u533a
p1676
L528500L
tp1677
a(V\u6d77\u5bff
p1678
L528500L
tp1679
assS'371702'
p1680
(dp1681
g11
(lp1682
(V\u5b8b\u6c5f\u540d\u90fd\u5c0f\u533a
p1683
L274700L
tp1684
assS'652101'
p1685
(dp1686
g157
(lp1687
(V\u9a7b\u519b\u90e8\u961f
p1688
L831021L
tp1689
a(V\u76d1\u72f1
p1690
L831021L
tp1691
assS'430104'
p1692
(dp1693
g11
(lp1694
(V\u83b2\u82b1\u9547
p1695
L410805L
tp1696
a(V\u96e8\u5382\u576a\u9547
p1697
L410805L
tp1698
assS'430105'
p1699
(dp1700
g157
(lp1701
(V\u73e0\u6c5f\u82b1\u57ce
p1702
L410031L
tp1703
a(V\u4e07\u56f4\u57ce
p1704
L410031L
tp1705
a(V\u4e07\u79d1\u57ce
p1706
L410031L
tp1707
a(V\u5b89\u5168\u804c\u9662
p1708
L410031L
tp1709
assS'152502'
p1710
(dp1711
g157
(lp1712
(V\u963f\u5df4\u560e\u65d7
p1713
L910001L
tp1714
a(V\u82cf\u5c3c\u7279\u5de6\u65d7
p1715
L910001L
tp1716
a(V\u82cf\u5c3c\u7279\u53f3\u65d7
p1717
L910001L
tp1718
a(V\u6b63\u84dd\u65d7
p1719
L910001L
tp1720
a(V\u6b63\u9576\u767d\u65d7
p1721
L910001L
tp1722
a(V\u9576\u9ec4\u65d7
p1723
L910001L
tp1724
assS'440604'
p1725
(dp1726
g157
(lp1727
(V\u5176\u4ed6\u4e0d\u9001
p1728
L528014L
tp1729
a(V\u5176\u4ed6\u4e0d\u6d3e\u9001
p1730
L528326L
tp1731
a(V\u5176\u4ed6\u4e0d\u6d3e\u9001
p1732
L528326L
tp1733
a(V\u5176\u4ed6\u4e0d\u9001
p1734
L528014L
tp1735
a(V\u5176\u4ed6\u4e0d\u6d3e\u9001
p1736
L528326L
tp1737
a(V\u5176\u4ed6\u4e0d\u9001
p1738
L528014L
tp1739
assS'610101'
p1740
(dp1741
g157
(lp1742
(V\u5176\u4ed6\u4e0d\u9001
p1743
L710081L
tp1744
assS'440606'
p1745
(dp1746
g11
(lp1747
(V\u5de6\u6ee9\u7ba1\u7406\u533a\u4ee5\u53ca\u5de5\u4e1a\u533a
p1748
L528300L
tp1749
assS'440607'
p1750
(dp1751
g11
(lp1752
(V\u5343\u53f6\u82b1\u56ed
p1753
L528100L
tp1754
a(V\u65b0\u660e\u73e0\u5de5\u4e1a\u56ed
p1755
L528264L
tp1756
assS'131128'
p1757
(dp1758
g11
(lp1759
(V\u961c\u57ce\u9547\u7684\u5176\u4ed6\u6751\u5e84
p1760
L953700L
tp1761
a(V\u53e4\u57ce\u9547
p1762
L953700L
tp1763
a(V\u6f2b\u6cb3\u4e61
p1764
L953700L
tp1765
a(V\u848b\u574a\u4e61
p1766
L953700L
tp1767
a(V\u5efa\u6865\u4e61
p1768
L953700L
tp1769
a(V\u5927\u767d\u4e61
p1770
L953700L
tp1771
a(V\u5d14\u5e99\u9547
p1772
L953700L
tp1773
a(V\u7801\u5934\u9547
p1774
L953700L
tp1775
a(V\u971e\u53e3\u9547
p1776
L953700L
tp1777
a(V\u738b\u96c6\u4e61
p1778
L953700L
tp1779
a(V\u4ee5\u53ca\u5404\u4e61\u9547\u5de5\u4e1a\u533a
p1780
L953700L
tp1781
a(V\u961c\u57ce\u9547\u7684\u5176\u4ed6\u6751\u5e84
p1782
L953700L
tp1783
a(V\u53e4\u57ce\u9547
p1784
L953700L
tp1785
a(V\u6f2b\u6cb3\u4e61
p1786
L953700L
tp1787
a(V\u848b\u574a\u4e61
p1788
L953700L
tp1789
a(V\u5efa\u6865\u4e61
p1790
L953700L
tp1791
a(V\u5927\u767d\u4e61
p1792
L953700L
tp1793
a(V\u5d14\u5e99\u9547
p1794
L953700L
tp1795
a(V\u7801\u5934\u9547
p1796
L953700L
tp1797
a(V\u971e\u53e3\u9547
p1798
L953700L
tp1799
a(V\u738b\u96c6\u4e61
p1800
L953700L
tp1801
a(V\u4ee5\u53ca\u5404\u4e61\u9547\u5de5\u4e1a\u533a
p1802
L953700L
tp1803
assS'131082'
p1804
(dp1805
g157
(lp1806
(V\u4eac\u534e\u9ad8\u5c14\u592b
p1807
L100422L
tp1808
a(V\u71d5\u9f99\u751f\u6001\u56ed
p1809
L100422L
tp1810
a(V\u6682\u505c
p1811
L100425L
tp1812
assS'411102'
p1813
(dp1814
g11
(lp1815
(V\u5317\u821e\u6e21\u9547
p1816
L462400L
tp1817
a(V\u5434\u57ce\u9547
p1818
L462400L
tp1819
a(V\u4e5d\u8857\u4e61
p1820
L462400L
tp1821
a(V\u59dc\u5e97\u4e61
p1822
L462400L
tp1823
a(V\u4fdd\u548c\u4e61
p1824
L462400L
tp1825
a(V\u83b2\u82b1\u9547
p1826
L462400L
tp1827
a(V\u4faf\u96c6\u4e61
p1828
L462400L
tp1829
a(V\u9a6c\u6751\u4e61
p1830
L462400L
tp1831
a(V\u62d0\u5b50\u738b\u4e61
p1832
L462400L
tp1833
assS'210404'
p1834
(dp1835
g157
(lp1836
(V\u53e4\u57ce\u5b50
p1837
L113015L
tp1838
a(V\u6f14\u6b66
p1839
L113015L
tp1840
a(V\u4e0d\u9001
p1841
L113015L
tp1842
assS'210402'
p1843
(dp1844
g157
(lp1845
(V\u5176\u4ed6\u4e0d\u6d3e\u9001
p1846
L113016L
tp1847
assS'420381'
p1848
(dp1849
g11
(lp1850
(V\u5747\u53bf\u9547
p1851
L442001L
tp1852
a(V\u5b98\u5c71\u9547
p1853
L442001L
tp1854
a(V\u4e01\u5bb6\u8425\u9547
p1855
L442001L
tp1856
a(V\u6d6a\u6cb3\u9547
p1857
L442001L
tp1858
a(V\u76d0\u6c60\u6cb3\u9547
p1859
L442001L
tp1860
a(V\u571f\u5173\u57ad\u9547
p1861
L442001L
tp1862
a(V\u4e60\u5bb6\u5e97\u9547
p1863
L442001L
tp1864
a(V\u84bf\u576a\u9547
p1865
L442001L
tp1866
a(V\u77f3\u9f13\u9547
p1867
L442001L
tp1868
a(V\u51c9\u6c34\u6cb3\u9547
p1869
L442001L
tp1870
assS'231024'
p1871
(dp1872
g157
(lp1873
(V\u5305\u62ec\u8001\u9ed1\u5c71
p1874
L157200L
tp1875
a(V\u5927\u809a\u5ddd
p1876
L157200L
tp1877
a(V\u9053\u6cb3
p1878
L157200L
tp1879
a(V\u91d1\u5382
p1880
L157200L
tp1881
a(V\u7ec6\u9e9f\u6cb3
p1882
L157200L
tp1883
a(V\u6ce1\u5b50\u6cbf
p1884
L157200L
tp1885
assS'130203'
p1886
(dp1887
g157
(lp1888
(V\u5176\u4ed6\u4e0d\u9001
p1889
L963006L
tp1890
a(V\u5176\u4ed6\u4e0d\u9001
p1891
L963005L
tp1892
a(V\u5176\u4ed6\u4e0d\u9001
p1893
L963006L
tp1894
a(V\u5176\u4ed6\u4e0d\u9001
p1895
L963005L
tp1896
assS'441901'
p1897
(dp1898
g157
(lp1899
(V\u5176\u5b83\u4e0d\u6536\u9001
p1900
L517722L
tp1901
a(V\u6682\u65e0
p1902
L511741L
tp1903
a(V\u5176\u4ed6\u4e0d\u9001
p1904
L511746L
tp1905
a(V\u5176\u4ed6\u4e0d\u9001
p1906
L511749L
tp1907
a(V\u5176\u4ed6\u4e0d\u9001
p1908
L511763L
tp1909
a(V\u5176\u5b83\u4e0d\u9001
p1910
L511707L
tp1911
a(V\u5176\u5b83\u4e0d\u9001
p1912
L511709L
tp1913
a(V\u65e0
p1914
L523079L
tp1915
a(V\u5176\u4ed6\u4e0d\u9001
p1916
L523111L
tp1917
a(V\u5176\u4ed6\u4e0d\u9001
p1918
L523002L
tp1919
a(V\u5176\u4ed6\u4e0d\u9001
p1920
L523179L
tp1921
a(V\u5176\u4ed6\u4e0d\u6d3e\u9001
p1922
L511839L
tp1923
assS'530621'
p1924
(dp1925
g11
(lp1926
(V\u706b\u5fb7\u7ea2\u4e61
p1927
L650077L
tp1928
a(V\u6c5f\u5e95\u4e61
p1929
L650077L
tp1930
a(V\u6843\u6e90\u4e61
p1931
L650077L
tp1932
a(V\u8328\u9662\u4e61
p1933
L650077L
tp1934
a(V\u4e50\u7ea2\u4e61
p1935
L650077L
tp1936
a(V\u9f99\u5934\u5c71\u9547
p1937
L650077L
tp1938
a(V\u5c0f\u5be8\u4e61
p1939
L650077L
tp1940
a(V\u68ad\u5c71\u4e61
p1941
L650077L
tp1942
a(V\u65b0\u8857\u4e61
p1943
L650077L
tp1944
assS'440511'
p1945
(dp1946
g157
(lp1947
(V\u6240\u6709\u90e8\u961f
p1948
L515000L
tp1949
assS'130202'
p1950
(dp1951
g157
(lp1952
(V\u5176\u4ed6\u4e0d\u9001
p1953
L963005L
tp1954
a(V\u5176\u4ed6\u4e0d\u9001
p1955
L963006L
tp1956
assS'231025'
p1957
(dp1958
g157
(lp1959
(V\u7ec4\u59d4
p1960
L157600L
tp1961
a(V\u4fe1\u7bb1
p1962
L157600L
tp1963
assS'341702'
p1964
(dp1965
g11
(lp1966
(V\u5927\u6e21\u53e3\u9547
p1967
L247200L
tp1968
a(V\u80dc\u5229\u9547
p1969
L247200L
tp1970
a(V\u5f20\u6eaa\u9547
p1971
L247200L
tp1972
a(V\u9f99\u6cc9\u9547
p1973
L247200L
tp1974
a(V\u5b98\u6e2f\u9547
p1975
L247200L
tp1976
a(V\u6d0b\u6e56\u9547
p1977
L247200L
tp1978
a(V\u6ce5\u6eaa\u9547
p1979
L247200L
tp1980
a(V\u662d\u5858\u9547
p1981
L247200L
tp1982
a(V\u845b\u516c\u9547
p1983
L247200L
tp1984
a(V\u4e1c\u6d41\u9547
p1985
L247200L
tp1986
assS'230304'
p1987
(dp1988
g157
(lp1989
(V\u5c0f\u534a\u9053
p1990
L158103L
tp1991
a(V\u6c34\u6e90\u5730
p1992
L158103L
tp1993
a(V\u4e1c\u98ce
p1994
L158103L
tp1995
a(V\u6cb3\u5317
p1996
L158103L
tp1997
a(V\u87ba\u65cb\u7ba1\u5382
p1998
L158103L
tp1999
a(V\u4e8c\u8fd0
p2000
L158103L
tp2001
assS'140202'
p2002
(dp2003
g157
(lp2004
(V\u516d\u77ff\u65b0\u533a
p2005
L937001L
tp2006
a(V\u5404\u7535\u5382
p2007
L937001L
tp2008
a(V\u5404\u6c34\u6ce5\u5382
p2009
L937001L
tp2010
assS'430626'
p2011
(dp2012
g11
(lp2013
(V\u4e09\u5e02\u9547
p2014
L414004L
tp2015
a(V\u52a0\u4e49\u9547
p2016
L414004L
tp2017
a(V\u9f99\u95e8\u9547
p2018
L414004L
tp2019
a(V\u8679\u6865\u9547
p2020
L414004L
tp2021
a(V\u6885\u4ed9\u9547
p2022
L414004L
tp2023
a(V\u6d6f\u53e3\u9547
p2024
L414004L
tp2025
a(V\u74ee\u6c5f\u9547
p2026
L414004L
tp2027
a(V\u4f0d\u5e02\u9547
p2028
L414004L
tp2029
a(V\u5411\u5bb6\u9547
p2030
L414004L
tp2031
a(V\u7ae5\u5e02\u9547
p2032
L414004L
tp2033
a(V\u5c91\u5ddd\u9547
p2034
L414004L
tp2035
a(V\u4e09\u9633\u4e61
p2036
L414004L
tp2037
a(V\u601d\u6751\u4e61
p2038
L414004L
tp2039
a(V\u548f\u751f\u4e61
p2040
L414004L
tp2041
a(V\u9ec4\u91d1\u6d1e\u4e61
p2042
L414004L
tp2043
a(V\u5357\u6865\u4e61
p2044
L414004L
tp2045
a(V\u6728\u91d1\u4e61
p2046
L414004L
tp2047
a(V\u5927\u576a\u4e61
p2048
L414004L
tp2049
a(V\u51ac\u5854\u4e61
p2050
L414004L
tp2051
a(V\u677f\u6c5f\u4e61
p2052
L414004L
tp2053
a(V\u5927\u6d32\u4e61
p2054
L414004L
tp2055
a(V\u4e09\u58a9\u4e61
p2056
L414004L
tp2057
assS'510122'
p2058
(dp2059
g11
(lp2060
(V\u5f6d\u9547\u7684\u7f8a\u576a\u6751
p2061
L610079L
tp2062
a(V\u5e38\u5b58\u6751
p2063
L610079L
tp2064
assS'331081'
p2065
(dp2066
g157
(lp2067
(V\u5c71\u533a\u6d77\u5c9b
p2068
L317502L
tp2069
assS'510124'
p2070
(dp2071
g157
(lp2072
(V\u5176\u4ed6\u4e0d\u6d3e\u9001
p2073
L611740L
tp2074
a(V\u5176\u4ed6\u4e0d\u9001
p2075
L611542L
tp2076
assS'341822'
p2077
(dp2078
g11
(lp2079
(V\u8a93\u8282\u9547
p2080
L242101L
tp2081
a(V\u65b0\u676d\u9547
p2082
L242101L
tp2083
a(V\u56db\u5408\u4e61
p2084
L242101L
tp2085
a(V\u6768\u6ee9\u4e61
p2086
L242101L
tp2087
a(V\u90b1\u6751\u9547
p2088
L242101L
tp2089
a(V\u4e1c\u4ead\u4e61
p2090
L242101L
tp2091
a(V\u5362\u6751\u4e61
p2092
L242101L
tp2093
assS'220402'
p2094
(dp2095
g157
(lp2096
(V\u4e1c\u8fbd\u53bf
p2097
L136200L
tp2098
assS'450503'
p2099
(dp2100
g11
(lp2101
(V\u516c\u9986\u9547
p2102
L530017L
tp2103
a(V\u767d\u6c99\u9547
p2104
L530017L
tp2105
a(V\u897f\u573a\u9547
p2106
L530017L
tp2107
a(V\u6c99\u7530\u9547
p2108
L530017L
tp2109
a(V\u515a\u6c5f\u9547
p2110
L530017L
tp2111
a(V\u6c99\u5c97\u9547
p2112
L530017L
tp2113
a(V\u4e4c\u5bb6\u9547
p2114
L530017L
tp2115
a(V\u95f8\u53e3\u9547
p2116
L530017L
tp2117
a(V\u5341\u5b57\u9547
p2118
L530017L
tp2119
a(V\u77f3\u5eb7\u9547
p2120
L530017L
tp2121
a(V\u5e38\u4e50\u9547
p2122
L530017L
tp2123
a(V\u77f3\u6e7e\u9547
p2124
L530017L
tp2125
assS'310105'
p2126
(dp2127
g157
(lp2128
(V\u6682\u505c
p2129
L200058L
tp2130
a(V\u6682\u505c
p2131
L200059L
tp2132
a(V\u6682\u505c
p2133
L201996L
tp2134
a(V\u6682\u505c
p2135
L201998L
tp2136
assS'442001'
p2137
(dp2138
g157
(lp2139
(V\u5176\u5b83\u4e0d\u9001
p2140
L528403L
tp2141
assS'650103'
p2142
(dp2143
g11
(lp2144
(V\u94c1\u897f\u6751
p2145
L831008L
tp2146
assS'310108'
p2147
(dp2148
g157
(lp2149
(V\u5176\u5b83\u4e0d\u6d3e\u9001
p2150
L200078L
tp2151
a(V\u5176\u5b83\u4e0d\u6d3e\u9001
p2152
L200078L
tp2153
assS'421281'
p2154
(dp2155
g11
(lp2156
(V\u795e\u5c71\u9547
p2157
L437300L
tp2158
a(V\u8f66\u57e0\u9547
p2159
L437300L
tp2160
a(V\u8336\u5eb5\u5cad\u9547
p2161
L437300L
tp2162
a(V\u8d75\u674e\u6865\u9547
p2163
L437300L
tp2164
a(V\u65b0\u5e97\u9547
p2165
L437300L
tp2166
a(V\u9ec4\u76d6\u6e56\u9547
p2167
L437300L
tp2168
a(V\u67f3\u5c71\u6e56\u9547
p2169
L437300L
tp2170
a(V\u4e2d\u4f19\u94fa\u9547
p2171
L437300L
tp2172
a(V\u5b98\u5858\u9a7f\u9547
p2173
L437300L
tp2174
a(V\u9ec4\u9f99\u9547
p2175
L437300L
tp2176
a(V\u6cc9\u53e3\u9547
p2177
L437300L
tp2178
a(V\u8d64\u58c1\u9547
p2179
L437300L
tp2180
a(V\u5468\u90ce\u5634\u56de\u65cf\u9547
p2181
L437300L
tp2182
a(V\u4f59\u5bb6\u6865\u4e61
p2183
L437300L
tp2184
a(V\u6728\u7530\u6751
p2185
L437300L
tp2186
a(V\u6728\u5b50\u5cad\u6751
p2187
L437300L
tp2188
a(V\u91d1\u6f6d\u6751
p2189
L437300L
tp2190
assS'530827'
p2191
(dp2192
g157
(lp2193
(V\u5176\u5b83\u4e0d\u9001
p2194
L665800L
tp2195
assS'320681'
p2196
(dp2197
g157
(lp2198
(V\u5927\u5510\u7535\u5382
p2199
L226200L
tp2200
a(V\u90e8\u961f
p2201
L226200L
tp2202
a(V\u57a6\u533a
p2203
L226200L
tp2204
assS'320684'
p2205
(dp2206
g11
(lp2207
(V\u4e34\u6c5f\u9547
p2208
L226100L
tp2209
a(V\u6d77\u6c38\u4e61
p2210
L226100L
tp2211
assS'130108'
p2212
(dp2213
g157
(lp2214
(V\u6682\u65e0
p2215
L930037L
tp2216
assS'341881'
p2217
(dp2218
g11
(lp2219
(V\u5b81\u58a9\u9547
p2220
L242300L
tp2221
a(V\u971e\u897f\u9547
p2222
L242300L
tp2223
a(V\u7532\u8def\u9547
p2224
L242300L
tp2225
a(V\u80e1\u4e50\u9547
p2226
L242300L
tp2227
a(V\u9752\u9f99\u4e61
p2228
L242300L
tp2229
a(V\u7af9\u5cf0\u4e61
p2230
L242300L
tp2231
a(V\u65b9\u5858\u4e61
p2232
L242300L
tp2233
a(V\u4e91\u68af\u7572\u65cf\u4e61
p2234
L242300L
tp2235
a(V\u4e07\u5bb6\u4e61
p2236
L242300L
tp2237
assS'330624'
p2238
(dp2239
g11
(lp2240
(V\u5c0f\u5c06\u9547
p2241
L312200L
tp2242
a(V\u6c99\u6eaa\u9547
p2243
L312200L
tp2244
a(V\u56de\u5c71\u9547
p2245
L312200L
tp2246
assS'330185'
p2247
(dp2248
g11
(lp2249
(V\u4e50\u5e73\u9547
p2250
L311300L
tp2251
a(V\u4e1c\u5929\u76ee\u4e61
p2252
L311300L
tp2253
a(V\u6e4d\u53e3\u9547
p2254
L311300L
tp2255
a(V\u9a6c\u5578\u4e61
p2256
L311300L
tp2257
assS'130502'
p2258
(dp2259
g157
(lp2260
(V\u65e0
p2261
L954004L
tp2262
a(V\u6682\u505c
p2263
L950081L
tp2264
assS'330183'
p2265
(dp2266
g157
(lp2267
(V\u7531
p2268
L311400L
tp2269
a(V\u6d3e\u9001
p2270
L311400L
tp2271
assS'371482'
p2272
(dp2273
g11
(lp2274
(V\u623f\u5bfa\u9547
p2275
L251200L
tp2276
a(V\u5f20\u5e84\u9547
p2277
L251200L
tp2278
a(V\u4f26\u9547
p2279
L251200L
tp2280
a(V\u8f9b\u5e97\u9547
p2281
L251200L
tp2282
a(V\u5b89\u4ec1\u9547
p2283
L251200L
tp2284
a(V\u8f9b\u5be8\u9547
p2285
L251200L
tp2286
a(V\u7cb1\u5bb6\u9547
p2287
L251200L
tp2288
a(V\u674e\u5c6f\u4e61
p2289
L251200L
tp2290
a(V\u5341\u91cc\u671b\u56de\u65cf\u4e61
p2291
L251200L
tp2292
a(V\u8392\u9547\u4e61
p2293
L251200L
tp2294
assS'220881'
p2295
(dp2296
g11
(lp2297
(V\u6d2e\u5e9c\u4e61
p2298
L137001L
tp2299
assS'360122'
p2300
(dp2301
g11
(lp2302
(V\u592a\u5e73\u4e61
p2303
L330028L
tp2304
a(V\u6885\u5cad\u9547
p2305
L330028L
tp2306
assS'370725'
p2307
(dp2308
g11
(lp2309
(V\u4e94\u56fe\u9547
p2310
L262400L
tp2311
a(V\u4e54\u5b98\u9547
p2312
L262400L
tp2313
a(V\u7ea2\u6cb3\u9547
p2314
L262400L
tp2315
assS'440203'
p2316
(dp2317
g11
(lp2318
(V\u7476\u6751
p2319
L512500L
tp2320
assS'210211'
p2321
(dp2322
g3
(lp2323
(V\u6ec7\u6c60\u8def2\u53f7
p2324
L116054L
tp2325
a(V\u592a\u6e56\u8def34\u53f7
p2326
L116054L
tp2327
assS'340207'
p2328
(dp2329
g157
(lp2330
(V\u5176\u5b83\u4e0d\u9001
p2331
L241013L
tp2332
a(V\u5176\u5b83\u4e0d\u6536\u9001
p2333
L241018L
tp2334
assS'620102'
p2335
(dp2336
g11
(lp2337
(V\u9752\u57ce\u9547
p2338
L730003L
tp2339
a(V\u5c0f\u5eb7\u8425\u4e61
p2340
L730003L
tp2341
a(V\u4e0a\u82b1\u5c94\u4e61
p2342
L730003L
tp2343
a(V\u54c8\u5c98\u4e61
p2344
L730003L
tp2345
a(V\u8fde\u642d\u4e61
p2346
L730003L
tp2347
a(V\u6765\u7d2b\u5821\u4e61
p2348
L730003L
tp2349
a(V\u9f99\u6cc9\u4e61
p2350
L730003L
tp2351
a(V\u65b0\u8425\u4e61
p2352
L730003L
tp2353
a(V\u7518\u8349\u5e97\u9547
p2354
L730003L
tp2355
a(V\u9ad8\u5d16\u9547
p2356
L730003L
tp2357
a(V\u91d1\u5d16\u9547
p2358
L730003L
tp2359
a(V\u5b9a\u8fdc\u9547
p2360
L730003L
tp2361
assS'130185'
p2362
(dp2363
g157
(lp2364
(V\u4e2d\u5174\u7269\u6d41\u56ed
p2365
L950002L
tp2366
assS'500224'
p2367
(dp2368
g11
(lp2369
(V\u897f\u5317\u4e2d\u5b66
p2370
L404104L
tp2371
a(V\u897f\u5317\u5c0f\u5b66
p2372
L404104L
tp2373
a(V\u5357\u57ce\u5c0f\u5b66
p2374
L404104L
tp2375
a(V\u534e\u7ee3\u670d\u88c5\u5b66\u6821
p2376
L404104L
tp2377
assS'500227'
p2378
(dp2379
g157
(lp2380
(V\u84dd\u9edb\u5b9e\u4e1a
p2381
L402760L
tp2382
assS'500226'
p2383
(dp2384
g11
(lp2385
(V\u89c2\u80dc\u9547
p2386
L402460L
tp2387
a(V\u6cb3\u5305\u9547
p2388
L402460L
tp2389
a(V\u8363\u9686\u9547
p2390
L402460L
tp2391
a(V\u9f99\u96c6\u9547
p2392
L402460L
tp2393
a(V\u76f4\u5347\u9547
p2394
L402460L
tp2395
a(V\u8def\u5b54\u9547
p2396
L402460L
tp2397
a(V\u6e05\u6c5f\u9547
p2398
L402460L
tp2399
a(V\u53e4\u660c\u9547
p2400
L402460L
tp2401
a(V\u94dc\u9f13\u9547
p2402
L402460L
tp2403
a(V\u6e05\u6d41\u9547
p2404
L402460L
tp2405
a(V\u8fdc\u89c9\u9547
p2406
L402460L
tp2407
assS'500228'
p2408
(dp2409
g11
(lp2410
(V\u4ec1\u8d24\u9547
p2411
L405200L
tp2412
a(V\u793c\u8ba9\u9547
p2413
L405200L
tp2414
a(V\u4e91\u9f99\u9547
p2415
L405200L
tp2416
a(V\u5c4f\u9526\u9547
p2417
L405200L
tp2418
a(V\u8881\u9a7f\u9547
p2419
L405200L
tp2420
a(V\u65b0\u76db\u9547
p2421
L405200L
tp2422
a(V\u798f\u7984\u9547
p2423
L405200L
tp2424
a(V\u91d1\u5e26\u9547
p2425
L405200L
tp2426
a(V\u805a\u594e\u9547
p2427
L405200L
tp2428
a(V\u660e\u8fbe\u9547
p2429
L405200L
tp2430
a(V\u836b\u5e73\u9547
p2431
L405200L
tp2432
a(V\u548c\u6797\u9547
p2433
L405200L
tp2434
a(V\u56de\u9f99\u9547
p2435
L405200L
tp2436
a(V\u78a7\u5c71\u9547
p2437
L405200L
tp2438
a(V\u864e\u57ce\u9547
p2439
L405200L
tp2440
a(V\u4e03\u661f\u9547
p2441
L405200L
tp2442
a(V\u9f99\u95e8\u9547
p2443
L405200L
tp2444
a(V\u6587\u5316\u9547
p2445
L405200L
tp2446
a(V\u5408\u5174\u9547
p2447
L405200L
tp2448
a(V\u77f3\u5b89\u9547
p2449
L405200L
tp2450
a(V\u67cf\u5bb6\u9547
p2451
L405200L
tp2452
a(V\u5927\u89c2\u9547
p2453
L405200L
tp2454
a(V\u7af9\u5c71\u9547
p2455
L405200L
tp2456
a(V\u87e0\u9f99\u9547
p2457
L405200L
tp2458
a(V\u5b89\u80dc\u4e61
p2459
L405200L
tp2460
a(V\u94c1\u95e8\u4e61
p2461
L405200L
tp2462
a(V\u9f99\u80dc\u4e61
p2463
L405200L
tp2464
a(V\u590d\u5e73\u4e61
p2465
L405200L
tp2466
a(V\u57ce\u4e1c\u4e61
p2467
L405200L
tp2468
a(V\u7d2b\u7167\u4e61
p2469
L405200L
tp2470
a(V\u57ce\u5317\u4e61
p2471
L405200L
tp2472
a(V\u66f2\u6c34\u4e61
p2473
L405200L
tp2474
assS'130802'
p2475
(dp2476
g11
(lp2477
(V\u534a\u58c1\u5c71\u9547
p2478
L967300L
tp2479
a(V\u6302\u5170\u5cea\u9547
p2480
L967300L
tp2481
a(V\u9752\u677e\u5cad\u9547
p2482
L967300L
tp2483
a(V\u516d\u9053\u6cb3\u9547
p2484
L967300L
tp2485
a(V\u5317\u8425\u623f\u9547
p2486
L967300L
tp2487
a(V\u5357\u5929\u95e8\u6ee1\u65cf\u4e61
p2488
L967300L
tp2489
a(V\u5b64\u5c71\u5b50\u4e61
p2490
L967300L
tp2491
a(V\u516b\u5366\u5cad\u6ee1\u65cf\u4e61
p2492
L967300L
tp2493
a(V\u9661\u5b50\u5cea\u4e61
p2494
L967300L
tp2495
a(V\u4e0a\u77f3\u6d1e\u4e61
p2496
L967300L
tp2497
a(V\u5317\u6c34\u6cc9\u4e61
p2498
L967300L
tp2499
a(V\u674e\u5bb6\u8425\u4e61
p2500
L967300L
tp2501
a(V\u5927\u6756\u5b50\u4e61
p2502
L967300L
tp2503
a(V\u8611\u83c7\u5cea\u4e61
p2504
L967300L
tp2505
a(V\u4e09\u9053\u6cb3\u4e61
p2506
L967300L
tp2507
a(V\u84dd\u65d7\u8425\u4e61
p2508
L967300L
tp2509
a(V\u5b89\u5b50\u5cad\u4e61
p2510
L967300L
tp2511
assS'331082'
p2512
(dp2513
g157
(lp2514
(V\u5176\u5b83\u4e0d\u9001
p2515
L317002L
tp2516
assS'230702'
p2517
(dp2518
g157
(lp2519
(V\u5317
p2520
L153000L
tp2521
a(V\u6797\u79d1\u56ed\u4ee5\u4e1c
p2522
L153000L
tp2523
a(V\u5357
p2524
L153000L
tp2525
a(V\u706b\u8f66\u7ad9\u4ee5\u4e1c
p2526
L153000L
tp2527
a(V\u897f
p2528
L153000L
tp2529
a(V\u4e1c
p2530
L153000L
tp2531
assS'230202'
p2532
(dp2533
g157
(lp2534
(V\u6602\u6602\u6eaa\u533a
p2535
L161001L
tp2536
a(V\u6885\u91cc\u65af\u533a
p2537
L161001L
tp2538
a(V\u6602\u6602\u6eaa\u533a
p2539
L161001L
tp2540
a(V\u6885\u91cc\u65af\u533a
p2541
L161001L
tp2542
assS'320829'
p2543
(dp2544
g157
(lp2545
(V\u5176\u5b83\u4e0d\u9001
p2546
L223100L
tp2547
assS'429006'
p2548
(dp2549
g3
(lp2550
(V\u5cb3\u98de\u5927\u90531
p2551
L431702L
tp2552
assS'440113'
p2553
(dp2554
g157
(lp2555
(V\u6d77\u9e25\u5c9b
p2556
L511473L
tp2557
a(V\u6d77\u9e25\u5c9b
p2558
L511473L
tp2559
a(V\u6d77\u9e25\u5c9b
p2560
L511473L
tp2561
a(V\u6d77\u9e25\u5c9b
p2562
L511473L
tp2563
assS'440114'
p2564
(dp2565
g11
(lp2566
(V\u9a6c\u5cad\u6751
p2567
L510823L
tp2568
a(V\u8054\u5fc3\u6751
p2569
L510823L
tp2570
a(V\u77f3\u5751\u6751
p2571
L510823L
tp2572
a(V\u90b9\u5c4b\u6751
p2573
L510823L
tp2574
a(V\u4e49\u5c71\u6751
p2575
L510823L
tp2576
assS'420105'
p2577
(dp2578
g157
(lp2579
(V\u5176\u5b83\u4e0d\u9001
p2580
L430051L
tp2581
assS'420107'
p2582
(dp2583
g3
(lp2584
(V\u7126\u6c99\u8def
p2585
L430143L
tp2586
a(V21\u53f7\u516c\u8def
p2587
L430143L
tp2588
assS'371081'
p2589
(dp2590
g11
(lp2591
(V\u6587\u767b\u8425\u9547
p2592
L264400L
tp2593
a(V\u5927\u6c34\u6cca\u9547
p2594
L264400L
tp2595
a(V\u9ad8\u6751\u9547
p2596
L264400L
tp2597
a(V\u6cfd\u5e93\u9547
p2598
L264400L
tp2599
a(V\u4faf\u5bb6\u9547
p2600
L264400L
tp2601
a(V\u6cfd\u5934\u9547
p2602
L264400L
tp2603
a(V\u754c\u77f3\u9547
p2604
L264400L
tp2605
assS'320382'
p2606
(dp2607
g157
(lp2608
(V\u5176\u5b83\u4e0d\u6536\u9001
p2609
L221300L
tp2610
assS'419001'
p2611
(dp2612
g11
(lp2613
(V\u4e94\u9f99\u53e3\u9547
p2614
L454650L
tp2615
a(V\u627f\u7559\u9547
p2616
L454650L
tp2617
a(V\u90b5\u539f\u9547
p2618
L454650L
tp2619
a(V\u5761\u5934\u9547
p2620
L454650L
tp2621
a(V\u5927\u5cea\u9547
p2622
L454650L
tp2623
a(V\u601d\u793c\u4e61
p2624
L454650L
tp2625
a(V\u738b\u5c4b\u4e61
p2626
L454650L
tp2627
a(V\u4e0b\u51b6\u4e61
p2628
L454650L
tp2629
a(V\u836f\u56ed\u6751
p2630
L454657L
tp2631
assS'450325'
p2632
(dp2633
g11
(lp2634
(V\u6eb6\u6c5f\u9547
p2635
L541300L
tp2636
a(V\u754c\u9996\u9547
p2637
L541300L
tp2638
a(V\u9ad8\u5c1a\u9547
p2639
L541300L
tp2640
a(V\u4e25\u5173\u9547
p2641
L541300L
tp2642
a(V\u534e\u6c5f\u4e61
p2643
L541300L
tp2644
assS'220681'
p2645
(dp2646
g157
(lp2647
(V\u4e0d\u6d3e\u9001
p2648
L134600L
tp2649
assS'340111'
p2650
(dp2651
g157
(lp2652
(V\u5176\u4ed6\u4e0d\u6d3e\u9001
p2653
L230068L
tp2654
a(V\u5176\u4ed6\u4e0d\u9001
p2655
L230063L
tp2656
a(V\u6682\u505c
p2657
L230046L
tp2658
a(V\u6682\u505c
p2659
L230043L
tp2660
a(V\u6682\u505c
p2661
L230067L
tp2662
a(V\u6682\u505c
p2663
L230071L
tp2664
assS'512021'
p2665
(dp2666
g157
(lp2667
(V\u901a\u5a01\u9972\u6599\u5382
p2668
L641500L
tp2669
a(V\u91d1\u6c34\u5cb8
p2670
L641500L
tp2671
a(V\u9526\u7ee3\u4e1d\u7ef8\u5382
p2672
L641500L
tp2673
a(V\u515a\u6821
p2674
L641500L
tp2675
a(V\u8fdb\u4fee\u6821
p2676
L641500L
tp2677
assS'512022'
p2678
(dp2679
g157
(lp2680
(V\u4ed9\u9e64\u89c2
p2681
L641507L
tp2682
a(V\u6c34\u89c2\u97f3
p2683
L641507L
tp2684
assS'431302'
p2685
(dp2686
g157
(lp2687
(V\u5b59\u6c34\u6cb3\u4ee5\u5357
p2688
L417000L
tp2689
a(V\u76d1\u72f1
p2690
L417000L
tp2691
a(V\u5f69\u8272\u6c34\u6ce5\u5382
p2692
L417000L
tp2693
a(V\u9aa1\u5b50\u5773
p2694
L417000L
tp2695
a(V\u6c5f\u9f99\u6ee9
p2696
L417000L
tp2697
a(V\u94fe\u94a2\u5382\u533a
p2698
L417000L
tp2699
a(V\u5317\u5927\u6865\u4ee5\u5317
p2700
L417000L
tp2701
a(V\u6d9f\u6e90\u5e02
p2702
L417000L
tp2703
a(V\u5317\u5927\u6865\u4ee5\u5317
p2704
L417002L
tp2705
a(V\u9ad8\u6eaa\u65b0\u533a
p2706
L417002L
tp2707
a(V\u4e61\u9547\u4e0d\u6d3e\u9001
p2708
L417002L
tp2709
assS'511126'
p2710
(dp2711
g11
(lp2712
(V\u8fce\u6625\u5357\u8def\u622a\u6b62\u5230\u57ce\u4e1c\u56fd\u9645\u5c0f\u533a
p2713
L614100L
tp2714
a(V\u74f7\u90fd\u5927\u9053\u622a\u6b62\u5230\u5a01\u5c3c\u5927\u9152\u5e97
p2715
L614100L
tp2716
a(V\u9ec4\u571f\u9547\u622a\u6b62\u5230\u89e3\u653e\u519b\u7b2c42\u533b\u9662
p2717
L614100L
tp2718
a(V\u8fdb\u7ad9\u8def\u622a\u6b62\u5230\u6c14\u8c61\u5c40
p2719
L614100L
tp2720
a(V\u8fdb\u7ad9\u8def\u622a\u6b62\u5230\u5939\u6c5f\u4e2d\u5b66
p2721
L614100L
tp2722
assS'370322'
p2723
(dp2724
g11
(lp2725
(V\u9ad8\u57ce\u9547
p2726
L256300L
tp2727
a(V\u5510\u574a\u9547
p2728
L256300L
tp2729
a(V\u8d75\u5e97\u9547
p2730
L256300L
tp2731
a(V\u82b1\u6c9f\u9547
p2732
L256300L
tp2733
a(V\u5e38\u5bb6\u9547
p2734
L256300L
tp2735
a(V\u9ed1\u91cc\u5be8\u9547
p2736
L256300L
tp2737
a(V\u9ad8\u57ce\u9547
p2738
L256300L
tp2739
a(V\u5510\u574a\u9547
p2740
L256300L
tp2741
a(V\u8d75\u5e97\u9547
p2742
L256300L
tp2743
a(V\u82b1\u6c9f\u9547
p2744
L256300L
tp2745
a(V\u5e38\u5bb6\u9547
p2746
L256300L
tp2747
a(V\u9ed1\u91cc\u5be8\u9547
p2748
L256300L
tp2749
assS'341221'
p2750
(dp2751
g157
(lp2752
(V\u5434\u738b\u5be8
p2753
L236400L
tp2754
a(V\u4e1c(\u897f)
p2755
L236400L
tp2756
a(V\u5e38\u6e7e
p2757
L236400L
tp2758
a(V\u6cc9\u5317\u5c45\u59d4\u4f1a
p2759
L236400L
tp2760
assS'341222'
p2761
(dp2762
g157
(lp2763
(V\u5176\u4ed6\u4e0d\u9001
p2764
L236602L
tp2765
assS'341225'
p2766
(dp2767
g157
(lp2768
(V\u897f\u5927\u95f8\u4ee5\u897f
p2769
L236300L
tp2770
a(V\u5316\u5de5\u5382\u4ee5\u5357
p2771
L236300L
tp2772
a(V\u4ea4\u8b66\u961f\u4ee5\u5317
p2773
L236300L
tp2774
assS'211002'
p2775
(dp2776
g157
(lp2777
(V\u9ec4\u91d1\u90e8\u961f
p2778
L111007L
tp2779
a(V\u7701\u79d1\u7814
p2780
L111007L
tp2781
a(V\u76ca\u5eb7\u751f\u7269
p2782
L111007L
tp2783
assS'620502'
p2784
(dp2785
g11
(lp2786
(V\u629b\u6c99\u9547
p2787
L741003L
tp2788
a(V\u7518\u6cc9\u9547
p2789
L741004L
tp2790
a(V\u6e2d\u5357\u9547
p2791
L741004L
tp2792
a(V\u4e1c\u5c94\u9547
p2793
L741004L
tp2794
a(V\u4e2d\u6ee9\u9547
p2795
L741004L
tp2796
a(V\u65b0\u9633\u9547
p2797
L741004L
tp2798
a(V\u5143\u9f99\u9547
p2799
L741004L
tp2800
a(V\u4f2f\u9633\u9547
p2801
L741004L
tp2802
a(V\u9ea6\u79ef\u9547
p2803
L741004L
tp2804
a(V\u82b1\u725b\u9547
p2805
L741004L
tp2806
a(V\u77f3\u4f5b\u4e61
p2807
L741004L
tp2808
a(V\u4e94\u9f99\u4e61
p2809
L741004L
tp2810
a(V\u7425\u73c0\u4e61
p2811
L741004L
tp2812
a(V\u515a\u5ddd\u4e61
p2813
L741004L
tp2814
a(V\u5229\u6865\u4e61
p2815
L741004L
tp2816
a(V\u51e4\u51f0\u4e61
p2817
L741004L
tp2818
a(V\u8857\u5b50\u4e61
p2819
L741004L
tp2820
assS'440183'
p2821
(dp2822
g157
(lp2823
(V\u5176\u5b83\u4e0d\u9001
p2824
L511300L
tp2825
assS'220702'
p2826
(dp2827
g157
(lp2828
(V\u5361\u62c9\u623f\u5b50
p2829
L130003L
tp2830
a(V\u4e61\u9547\u4e0d\u6d3e\u9001
p2831
L130003L
tp2832
assS'340803'
p2833
(dp2834
g11
(lp2835
(V\u6765\u699c\u9547
p2836
L246001L
tp2837
a(V\u767d\u5e3d\u9547
p2838
L246001L
tp2839
a(V\u5e97\u524d\u9547
p2840
L246001L
tp2841
a(V\u9752\u5929\u4e61
p2842
L246001L
tp2843
a(V\u5305\u5bb6\u4e61
p2844
L246001L
tp2845
a(V\u4e2d\u5173\u4e61
p2846
L246001L
tp2847
a(V\u4e94\u6cb3\u9547
p2848
L246001L
tp2849
a(V\u54cd\u80a0\u9547
p2850
L246001L
tp2851
a(V\u6bdb\u5c16\u5c71\u4e61
p2852
L246001L
tp2853
a(V\u6e29\u6cc9\u9547
p2854
L246001L
tp2855
a(V\u77f3\u5173\u4e61
p2856
L246001L
tp2857
a(V\u4e3b\u7c3f\u9547
p2858
L246001L
tp2859
a(V\u9ec4\u5c3e\u9547
p2860
L246001L
tp2861
a(V\u5934\u9640\u9547
p2862
L246001L
tp2863
a(V\u6708\u5c71\u9547
p2864
L246002L
tp2865
a(V\u8336\u5cad\u9547
p2866
L246002L
tp2867
a(V\u51c9\u4ead\u4e61
p2868
L246002L
tp2869
a(V\u516c\u5cad\u9547
p2870
L246002L
tp2871
a(V\u9a6c\u5e99\u4e61
p2872
L246002L
tp2873
a(V\u77f3\u724c\u9547
p2874
L246002L
tp2875
a(V\u4e09\u6865\u9547
p2876
L246002L
tp2877
a(V\u6d2a\u9547
p2878
L246002L
tp2879
a(V\u77f3\u955c\u4e61
p2880
L246002L
tp2881
a(V\u9ec4\u58a9\u9547
p2882
L246002L
tp2883
a(V\u6e05\u548c\u4e61
p2884
L246002L
tp2885
a(V\u5c0f\u5e02\u9547
p2886
L246002L
tp2887
assS'421083'
p2888
(dp2889
g11
(lp2890
(V\u66f9\u5e02\u9547
p2891
L433200L
tp2892
assS'421081'
p2893
(dp2894
g11
(lp2895
(V\u5c0f\u6cb3\u53e3\u9547
p2896
L434400L
tp2897
a(V\u8c03\u5173\u9547
p2898
L434400L
tp2899
a(V\u9ad8\u57fa\u5e99\u9547
p2900
L434400L
tp2901
a(V\u4e45\u5408\u57b8\u4e61
p2902
L434400L
tp2903
a(V\u56e2\u5c71\u5bfa\u9547
p2904
L434400L
tp2905
a(V\u5927\u57b8\u9547
p2906
L434400L
tp2907
a(V\u6a2a\u6c9f\u5e02\u9547
p2908
L434400L
tp2909
assS'511024'
p2910
(dp2911
g11
(lp2912
(V\u5411\u4e49\u9547
p2913
L641004L
tp2914
a(V\u65b0\u5e97\u9547
p2915
L641004L
tp2916
a(V\u9547\u897f\u9547
p2917
L641004L
tp2918
a(V\u754c\u724c\u9547
p2919
L641004L
tp2920
a(V\u9f99\u4f1a\u9547
p2921
L641004L
tp2922
a(V\u4e1c\u8054\u9547
p2923
L641004L
tp2924
a(V\u5e86\u536b\u9547
p2925
L641004L
tp2926
a(V\u65b0\u573a\u9547
p2927
L641004L
tp2928
a(V\u5c0f\u6cb3\u9547
p2929
L641004L
tp2930
a(V\u8d8a\u6eaa\u9547
p2931
L641004L
tp2932
a(V\u7897\u5382\u9547
p2933
L641004L
tp2934
a(V\u9ec4\u8346\u6c9f\u9547
p2935
L641004L
tp2936
a(V\u5c71\u738b\u9547
p2937
L641004L
tp2938
a(V\u89c2\u82f1\u6ee9\u9547
p2939
L641004L
tp2940
a(V\u4e24\u6cb3\u9547
p2941
L641004L
tp2942
a(V\u9756\u548c\u9547
p2943
L641004L
tp2944
a(V\u94fa\u5b50\u6e7e\u9547
p2945
L641004L
tp2946
a(V\u9ad8\u77f3\u9547
p2947
L641004L
tp2948
assS'130626'
p2949
(dp2950
g11
(lp2951
(V\u5b9a\u5174\u9547
p2952
L974003L
tp2953
a(V\u8d24\u5bd3\u9547
p2954
L974003L
tp2955
a(V\u56fa\u57ce\u9547
p2956
L974003L
tp2957
a(V\u5317\u6cb3\u9547
p2958
L974003L
tp2959
a(V\u5929\u5bab\u5bfa\u9547
p2960
L974003L
tp2961
a(V\u9ad8\u91cc\u4e61
p2962
L974003L
tp2963
a(V\u4e1c\u843d\u5821\u4e61
p2964
L974003L
tp2965
a(V\u5f20\u5bb6\u5e84\u4e61
p2966
L974003L
tp2967
a(V\u59da\u6751\u4e61
p2968
L974003L
tp2969
a(V\u67f3\u5353\u4e61
p2970
L974003L
tp2971
a(V\u6768\u6751\u4e61
p2972
L974003L
tp2973
a(V\u5317\u7530\u4e61
p2974
L974003L
tp2975
a(V\u674e\u90c1\u5e84\u4e61
p2976
L974003L
tp2977
a(V\u5317\u5357\u8521\u4e61
p2978
L974003L
tp2979
a(V\u8096\u6751\u4e61
p2980
L974003L
tp2981
assS'450422'
p2982
(dp2983
g11
(lp2984
(V\u6f6d\u4e1c\u9547
p2985
L543300L
tp2986
a(V\u6d25\u5317\u9547
p2987
L543300L
tp2988
a(V\u5858\u6b65\u9547
p2989
L543300L
tp2990
a(V\u7405\u5357\u9547
p2991
L543300L
tp2992
a(V\u540c\u5fc3\u9547
p2993
L543300L
tp2994
a(V\u91d1\u9e21\u9547
p2995
L543300L
tp2996
a(V\u65b0\u5e86\u9547
p2997
L543300L
tp2998
a(V\u8c61\u68cb\u9547
p2999
L543300L
tp3000
a(V\u5cad\u666f\u9547
p3001
L543300L
tp3002
a(V\u5929\u5e73\u9547
p3003
L543300L
tp3004
a(V\u6fdb\u6c5f\u9547
p3005
L543300L
tp3006
a(V\u548c\u5e73\u9547
p3007
L543300L
tp3008
a(V\u53e4\u9f99\u9547
p3009
L543300L
tp3010
a(V\u4e1c\u8363\u9547
p3011
L543300L
tp3012
a(V\u5927\u9ece\u9547
p3013
L543300L
tp3014
a(V\u5e73\u798f\u4e61
p3015
L543300L
tp3016
assS'130623'
p3017
(dp3018
g11
(lp3019
(V\u4e49\u5b89\u9547\u53ca\u4e0b\u5c5e\u6751\u5e84
p3020
L974100L
tp3021
a(V\u77f3\u4ead\u9547\u53ca\u4e0b\u5c5e\u6751\u5e84
p3022
L974100L
tp3023
a(V\u5b8b\u5404\u5e84\u9547\u53ca\u4e0b\u5c5e\u6751\u5e84
p3024
L974100L
tp3025
a(V\u4e09\u5761\u9547\u53ca\u4e0b\u5c5e\u6751\u5e84
p3026
L974100L
tp3027
a(V\u4e5d\u9f99\u9547\u53ca\u4e0b\u5c5e\u6751\u5e84
p3028
L974100L
tp3029
a(V\u80e1\u5bb6\u5e84\u4e61\u53ca\u4e0b\u5c5e\u6751\u5e84
p3030
L974100L
tp3031
a(V\u660e\u4e49\u4e61\u53ca\u4e0b\u5c5e\u6751\u5e84
p3032
L974100L
tp3033
a(V\u6c38\u9633\u9547\u53ca\u4e0b\u5c5e\u6751\u5e84
p3034
L974100L
tp3035
a(V\u4e1c\u6587\u5c71\u4e61\u53ca\u4e0b\u5c5e\u6751\u5e84
p3036
L974100L
tp3037
a(V\u738b\u6751\u4e61\u53ca\u4e0b\u5c5e\u6751\u5e84
p3038
L974100L
tp3039
a(V\u5a04\u6751\u6ee1\u65cf\u4e61\u53ca\u4e0b\u5c5e\u6751\u5e84
p3040
L974100L
tp3041
a(V\u8d75\u5404\u5e84\u9547\u53ca\u4e0b\u5c5e\u6751\u5e84
p3042
L974100L
tp3043
a(V\u5176\u4e2d\u53e3\u4e61\u53ca\u4e0b\u5c5e\u6751\u5e84
p3044
L974100L
tp3045
a(V\u9f99\u95e8\u53e3\u4e61\u53ca\u4e0b\u5c5e\u6751\u5e84
p3046
L974100L
tp3047
assS'331021'
p3048
(dp3049
g11
(lp3050
(V\u9e21\u5c71\u4e61
p3051
L317600L
tp3052
assS'420881'
p3053
(dp3054
g11
(lp3055
(V\u5ba2\u5e97\u9547
p3056
L431900L
tp3057
assS'510183'
p3058
(dp3059
g11
(lp3060
(V\u56fa\u9a7f\u9547
p3061
L611531L
tp3062
a(V\u5367\u9f99\u9547
p3063
L611531L
tp3064
a(V\u6851\u56ed\u9547
p3065
L611531L
tp3066
a(V\u56de\u9f99\u9547
p3067
L611531L
tp3068
a(V\u5189\u4e49\u9547
p3069
L611531L
tp3070
a(V\u725f\u793c\u9547
p3071
L611531L
tp3072
a(V\u5939\u5173\u9547
p3073
L611531L
tp3074
a(V\u524d\u8fdb\u9547
p3075
L611531L
tp3076
a(V\u706b\u4e95\u9547
p3077
L611531L
tp3078
a(V\u5b54\u660e\u4e61
p3079
L611531L
tp3080
a(V\u6c34\u53e3\u9547
p3081
L611531L
tp3082
a(V\u5b9d\u6797\u9547
p3083
L611531L
tp3084
a(V\u5357\u5b9d\u4e61
p3085
L611531L
tp3086
a(V\u6cc9\u6c34\u9547
p3087
L611531L
tp3088
a(V\u8336\u56ed\u4e61
p3089
L611531L
tp3090
a(V\u9ad8\u6cb3\u9547
p3091
L611531L
tp3092
a(V\u5927\u540c\u4e61
p3093
L611531L
tp3094
a(V\u9053\u4f50\u4e61
p3095
L611531L
tp3096
a(V\u4e34\u6d4e\u9547
p3097
L611531L
tp3098
a(V\u5929\u53f0\u5c71\u9547
p3099
L611531L
tp3100
a(V\u6cb9\u69a8\u4e61
p3101
L611531L
tp3102
a(V\u7f8a\u5b89\u9547
p3103
L611531L
tp3104
assS'510184'
p3105
(dp3106
g11
(lp3107
(V\u9526\u6c5f\u4e61
p3108
L611532L
tp3109
a(V\u6000\u8fdc\u9547
p3110
L611532L
tp3111
a(V\u8857\u5b50\u9547
p3112
L611532L
tp3113
a(V\u738b\u573a\u9547
p3114
L611532L
tp3115
a(V\u767d\u5934\u9547
p3116
L611532L
tp3117
a(V\u71ce\u539f\u4e61
p3118
L611532L
tp3119
a(V\u4e09\u6c5f\u9547
p3120
L611532L
tp3121
a(V\u542c\u6c5f\u4e61
p3122
L611532L
tp3123
a(V\u6893\u6f7c\u9547
p3124
L611532L
tp3125
a(V\u89c2\u80dc\u9547
p3126
L611532L
tp3127
assS'440981'
p3128
(dp3129
g11
(lp3130
(V\u6f6d\u5934\u9547
p3131
L525200L
tp3132
a(V\u5927\u4e95\u9547
p3133
L525200L
tp3134
a(V\u4e1c\u5cb8\u9547
p3135
L525200L
tp3136
a(V\u6df1\u9547\u9547
p3137
L525200L
tp3138
a(V\u66f9\u6c5f\u9547
p3139
L525200L
tp3140
a(V\u957f\u5761\u9547
p3141
L525200L
tp3142
a(V\u5e73\u5c71\u9547
p3143
L525200L
tp3144
a(V\u53e4\u4e01\u9547
p3145
L525200L
tp3146
a(V\u9a6c\u8d35\u9547
p3147
L525200L
tp3148
a(V\u5927\u5761\u9547
p3149
L525200L
tp3150
a(V\u8c22\u9e21\u9547
p3151
L525200L
tp3152
a(V\u65b0\u578c\u9547
p3153
L525200L
tp3154
a(V\u4e91\u6f6d\u9547
p3155
L525200L
tp3156
a(V\u6cd7\u6c34\u9547
p3157
L525200L
tp3158
a(V\u6839\u5b50\u9547
p3159
L525200L
tp3160
a(V\u8377\u5858\u9547
p3161
L525200L
tp3162
a(V\u5206\u754c\u9547
p3163
L525200L
tp3164
a(V\u9547\u6c5f\u9547
p3165
L525200L
tp3166
a(V\u6c99\u7530\u9547
p3167
L525200L
tp3168
a(V\u77f3\u677f\u9547
p3169
L525200L
tp3170
a(V\u8377\u82b1\u9547
p3171
L525200L
tp3172
assS'310106'
p3173
(dp3174
g157
(lp3175
(V\u6682\u505c
p3176
L200044L
tp3177
a(V\u6682\u505c
p3178
L200134L
tp3179
assS'320724'
p3180
(dp3181
g157
(lp3182
(V\u5176\u5b83\u4e0d\u9001
p3183
L222005L
tp3184
assS'510821'
p3185
(dp3186
g157
(lp3187
(V\u9648\u5bb6\u5cad\u793e\u533a
p3188
L628022L
tp3189
a(V\u9759\u4e50\u5bfa\u793e\u533a
p3190
L628022L
tp3191
assS'320721'
p3192
(dp3193
g157
(lp3194
(V\u4e0b\u53e3
p3195
L222006L
tp3196
a(V\u4e0d\u6d3e\u9001
p3197
L222006L
tp3198
assS'320723'
p3199
(dp3200
g157
(lp3201
(V\u4e34\u6e2f\u4ea7\u4e1a\u533a
p3202
L222007L
tp3203
a(V\u704c\u897f\u76d0\u573a
p3204
L222007L
tp3205
assS'510112'
p3206
(dp3207
g157
(lp3208
(V\u6682\u505c
p3209
L610301L
tp3210
a(V\u6682\u505c
p3211
L610303L
tp3212
assS'220202'
p3213
(dp3214
g157
(lp3215
(V\u94c1\u5408\u91d1\u5317\u5b85
p3216
L132017L
tp3217
assS'510114'
p3218
(dp3219
g157
(lp3220
(V\u6682\u505c
p3221
L610022L
tp3222
assS'510115'
p3223
(dp3224
g11
(lp3225
(V\u5bff\u5b89\u9547
p3226
L611100L
tp3227
a(V\u9547\u5b50\u9547
p3228
L611100L
tp3229
a(V\u56e2\u7ed3\u9547
p3230
L611100L
tp3231
assS'330523'
p3232
(dp3233
g11
(lp3234
(V\u7688\u5c71\u4e61
p3235
L313301L
tp3236
assS'620802'
p3237
(dp3238
g11
(lp3239
(V\u5d06\u5cd2\u9547
p3240
L744000L
tp3241
a(V\u8349\u5cf0\u9547
p3242
L744000L
tp3243
a(V\u5b89\u56fd\u4e61
p3244
L744000L
tp3245
a(V\u82b1\u6240\u4e61
p3246
L744000L
tp3247
a(V\u9999\u83b2\u4e61
p3248
L744000L
tp3249
a(V\u67f3\u6e56\u4e61
p3250
L744000L
tp3251
a(V\u897f\u9633\u56de\u65cf\u4e61
p3252
L744000L
tp3253
a(V\u5927\u79e6\u56de\u65cf\u4e61
p3254
L744000L
tp3255
a(V\u767d\u5e99\u56de\u65cf\u4e61
p3256
L744000L
tp3257
a(V\u5be8\u6cb3\u56de\u65cf\u4e61
p3258
L744000L
tp3259
a(V\u4e0a\u6768\u56de\u65cf\u4e61
p3260
L744000L
tp3261
a(V\u5ce1\u95e8\u56de\u65cf\u4e61
p3262
L744000L
tp3263
a(V\u4e16\u535a\u4f1f\u4e1a\u5bb6\u5c45\u5efa\u6750\u5e02\u573a
p3264
L744000L
tp3265
a(V\u5ce1\u95e8\u4e61
p3266
L744000L
tp3267
a(V\u5ce1\u95e8\u5de5\u4e1a\u56ed\u533a
p3268
L744000L
tp3269
a(V\u56db\u5341\u94fa\u5de5\u4e1a\u56ed\u533a
p3270
L744000L
tp3271
assS'640502'
p3272
(dp3273
g157
(lp3274
(V\u98de\u673a\u573a
p3275
L750022L
tp3276
a(V\u6d77\u539f\u53bf
p3277
L750022L
tp3278
assS'330703'
p3279
(dp3280
g157
(lp3281
(V\u5176\u5b83\u4e0d\u6d3e\u9001
p3282
L321037L
tp3283
assS'330702'
p3284
(dp3285
g157
(lp3286
(V\u5176\u5b83\u4e0d\u9001
p3287
L321000L
tp3288
a(Vbr
p3289
L321000L
tp3290
a(Vbr
p3291
L321000L
tp3292
assS'441402'
p3293
(dp3294
g11
(lp3295
(V\u5e7f\u798f\u9547
p3296
L514100L
tp3297
a(V\u6587\u798f\u9547
p3298
L514100L
tp3299
a(V\u4e09\u5733\u9547
p3300
L514100L
tp3301
a(V\u5357\u7924\u9547
p3302
L514100L
tp3303
a(V\u84dd\u574a\u9547
p3304
L514100L
tp3305
assS'440802'
p3306
(dp3307
g157
(lp3308
(V\u4e09\u89d2\u7535\u5668\u5382
p3309
L524082L
tp3310
a(V\u5a01\u529b\u795e\u9152\u4e1a
p3311
L524082L
tp3312
assS'131102'
p3313
(dp3314
g11
(lp3315
(V\u5180\u5dde\u9547
p3316
L953200L
tp3317
a(V\u5b98\u9053\u674e\u9547
p3318
L953200L
tp3319
a(V\u5357\u5348\u6751\u9547
p3320
L953200L
tp3321
a(V\u5468\u6751\u9547
p3322
L953200L
tp3323
a(V\u7801\u5934\u674e\u9547
p3324
L953200L
tp3325
a(V\u897f\u738b\u9547
p3326
L953200L
tp3327
a(V\u95e8\u5e84\u4e61
p3328
L953200L
tp3329
a(V\u5f90\u5bb6\u5e84\u4e61
p3330
L953200L
tp3331
a(V\u5317\u6f33\u6dee\u4e61
p3332
L953200L
tp3333
a(V\u5c0f\u5be8\u4e61
p3334
L953200L
tp3335
a(V\u961c\u57ce\u9547\u7684\u5176\u4ed6\u6751\u5e84
p3336
L953700L
tp3337
a(V\u53e4\u57ce\u9547
p3338
L953700L
tp3339
a(V\u6f2b\u6cb3\u4e61
p3340
L953700L
tp3341
a(V\u848b\u574a\u4e61
p3342
L953700L
tp3343
a(V\u5efa\u6865\u4e61
p3344
L953700L
tp3345
a(V\u5927\u767d\u4e61
p3346
L953700L
tp3347
a(V\u5d14\u5e99\u9547
p3348
L953700L
tp3349
a(V\u7801\u5934\u9547
p3350
L953700L
tp3351
a(V\u971e\u53e3\u9547
p3352
L953700L
tp3353
a(V\u738b\u96c6\u4e61
p3354
L953700L
tp3355
a(V\u4ee5\u53ca\u5404\u4e61\u9547\u5de5\u4e1a\u533a
p3356
L953700L
tp3357
assS'230183'
p3358
(dp3359
g11
(lp3360
(V\u524d\u8fdb\u6751
p3361
L157006L
tp3362
assS'511028'
p3363
(dp3364
g11
(lp3365
(V\u5c71\u5ddd\u9547
p3366
L641001L
tp3367
a(V\u4e91\u9876\u9547
p3368
L641001L
tp3369
a(V\u80e1\u5bb6\u9547
p3370
L641001L
tp3371
a(V\u5723\u706f\u9547
p3372
L641001L
tp3373
a(V\u54cd\u77f3\u9547
p3374
L641001L
tp3375
a(V\u9ec4\u5bb6\u9547
p3376
L641001L
tp3377
a(V\u53cc\u51e4\u9547
p3378
L641001L
tp3379
a(V\u9f99\u5e02\u9547
p3380
L641001L
tp3381
a(V\u8fce\u7965\u9547
p3382
L641001L
tp3383
a(V\u754c\u5e02\u9547
p3384
L641001L
tp3385
a(V\u674e\u5e02\u9547
p3386
L641001L
tp3387
a(V\u6e14\u7bad\u9547
p3388
L641001L
tp3389
a(V\u6842\u82b1\u4e95\u4e61
p3390
L641001L
tp3391
a(V\u77f3\u78be\u9547
p3392
L641001L
tp3393
a(V\u77f3\u71d5\u9547
p3394
L641001L
tp3395
assS'410102'
p3396
(dp3397
g157
(lp3398
(V\u5176\u4ed6\u4e0d\u9001
p3399
L450113L
tp3400
assS'610602'
p3401
(dp3402
g157
(lp3403
(V\u5eb7\u5d16\u5e95
p3404
L727300L
tp3405
a(V\u5c39\u5bb6\u6c9f\u5c71\u4e0a
p3406
L716002L
tp3407
a(V\u5411\u9633\u6c9f\u5c71\u4e0a
p3408
L716002L
tp3409
a(V\u6865\u6c9f\u5c71\u4e0a
p3410
L716002L
tp3411
a(V\u7fdf\u6cfd\u6c9f\u65b0\u6865
p3412
L716002L
tp3413
assS'211302'
p3414
(dp3415
g157
(lp3416
(V\u4e09\u5b9d
p3417
L122100L
tp3418
a(V\u53f0\u57fa
p3419
L122100L
tp3420
assS'341122'
p3421
(dp3422
g11
(lp3423
(V\u821c\u5c71\u9547
p3424
L239200L
tp3425
a(V\u53cc\u5858\u4e61
p3426
L239200L
tp3427
a(V\u590d\u5174\u9547
p3428
L239200L
tp3429
a(V\u65bd\u5b98\u9547
p3430
L239200L
tp3431
a(V\u5927\u82f1\u9547
p3432
L239200L
tp3433
a(V\u96f7\u5b98\u9547
p3434
L239200L
tp3435
a(V\u76f8\u5b98\u9547
p3436
L239200L
tp3437
assS'532524'
p3438
(dp3439
g11
(lp3440
(V\u7ea2\u5e99\u6751
p3441
L650014L
tp3442
assS'445202'
p3443
(dp3444
g157
(lp3445
(V\u6842\u5cad
p3446
L515500L
tp3447
a(V\u63ed\u897f\u53bf
p3448
L515500L
tp3449
a(V\u63ed\u4e1c\u53bf
p3450
L515500L
tp3451
assS'320582'
p3452
(dp3453
g157
(lp3454
(V\u6682\u505c
p3455
L215698L
tp3456
assS'231202'
p3457
(dp3458
g157
(lp3459
(V\u90ae\u653f\u4fe1\u7bb1
p3460
L152000L
tp3461
assS'330903'
p3462
(dp3463
g11
(lp3464
(V\u6843\u82b1\u9547
p3465
L316100L
tp3466
a(V\u867e\u5cd9\u9547
p3467
L316100L
tp3468
a(V\u4e1c\u6781\u9547
p3469
L316100L
tp3470
a(V\u666e\u9640\u5c71\u9547
p3471
L316100L
tp3472
a(V\u767d\u6c99\u4e61
p3473
L316100L
tp3474
a(V\u767b\u6b65\u4e61
p3475
L316100L
tp3476
a(V\u8682\u8681\u5c9b\u4e61
p3477
L316100L
tp3478
assS'330902'
p3479
(dp3480
g11
(lp3481
(V\u6c5f\u5357\u6751
p3482
L316005L
tp3483
assS'140802'
p3484
(dp3485
g157
(lp3486
(V\u94dc\u77ff\u5cea
p3487
L943700L
tp3488
a(V\u80e1\u5bb6\u5cea
p3489
L943700L
tp3490
a(V\u84d6\u5b50\u6c9f
p3491
L943700L
tp3492
a(V\u524d\u6cb3
p3493
L943700L
tp3494
a(V\u4e2d\u51b6\u533a
p3495
L943700L
tp3496
a(V\u897f\u5cf0\u5c71
p3497
L943700L
tp3498
a(V\u70ed\u7535\u5382
p3499
L943700L
tp3500
assS'150204'
p3501
(dp3502
g157
(lp3503
(V\u5357\u7ed5\u57ce
p3504
L914027L
tp3505
assS'130534'
p3506
(dp3507
g157
(lp3508
(V\u6682\u505c
p3509
L954009L
tp3510
assS'431128'
p3511
(dp3512
g11
(lp3513
(V\u91d1\u9675\u9547
p3514
L425700L
tp3515
a(V\u9aa5\u6751\u9547
p3516
L425700L
tp3517
a(V\u67a7\u5934\u9547
p3518
L425700L
tp3519
a(V\u65b0\u5729\u9547
p3520
L425700L
tp3521
a(V\u77f3\u7f8a\u9547
p3522
L425700L
tp3523
a(V\u65b0\u9686\u9547
p3524
L425700L
tp3525
a(V\u83b2\u82b1\u4e61
p3526
L425700L
tp3527
a(V\u51b7\u6c34\u4e95\u4e61
p3528
L425700L
tp3529
a(V\u95e8\u697c\u4e0b\u7476\u65cf\u4e61
p3530
L425700L
tp3531
a(V\u8302\u5bb6\u4e61
p3532
L425700L
tp3533
a(V\u6bdb\u91cc\u4e61
p3534
L425700L
tp3535
a(V\u5341\u5b57\u4e61
p3536
L425700L
tp3537
a(V\u91d1\u76c6\u5729\u4e61
p3538
L425700L
tp3539
a(V\u4e09\u4e95\u4e61
p3540
L425700L
tp3541
a(V\u9676\u5cad\u4e61
p3542
L425700L
tp3543
a(V\u9ad8\u5c71\u4e61
p3544
L425700L
tp3545
a(V\u77e5\u5e02\u576a\u4e61
p3546
L425700L
tp3547
a(V\u5927\u576a\u5858\u4e61
p3548
L425700L
tp3549
assS'110114'
p3550
(dp3551
g157
(lp3552
(V\u5176\u5b83\u4e0d\u6d3e\u9001
p3553
L100008L
tp3554
a(V\u6682\u65e0
p3555
L100367L
tp3556
a(V\u5176\u5b83\u4e0d\u6d3e\u9001
p3557
L100008L
tp3558
assS'110115'
p3559
(dp3560
g11
(lp3561
(V\u5b89\u5b9a\u9547
p3562
L100023L
tp3563
a(V\u5b89\u5b9a\u9547
p3564
L100023L
tp3565
assS'131003'
p3566
(dp3567
g11
(lp3568
(V\u5bab\u6751\u9547
p3569
L965706L
tp3570
a(V\u67f3\u6cc9\u9547
p3571
L965706L
tp3572
a(V\u725b\u9a7c\u9547
p3573
L965706L
tp3574
a(V\u4e1c\u6e7e\u4e61
p3575
L965706L
tp3576
a(V\u5f6d\u6751\u4e61
p3577
L965706L
tp3578
a(V\u6e20\u6c9f\u4e61
p3579
L965706L
tp3580
assS'530122'
p3581
(dp3582
g11
(lp3583
(V\u4e8c\u8857\u4e61
p3584
L650041L
tp3585
a(V\u5b9d\u5cf0\u4e61
p3586
L650041L
tp3587
a(V\u4e0a\u849c\u4e61
p3588
L650041L
tp3589
a(V\u5915\u9633\u5f5d\u65cf\u4e61
p3590
L650041L
tp3591
a(V\u53cc\u6cb3\u5f5d\u65cf\u4e61
p3592
L650041L
tp3593
a(V\u5316\u4e50\u4e61
p3594
L650041L
tp3595
a(V\u516d\u8857\u4e61
p3596
L650041L
tp3597
a(V\u65b0\u8857\u4e61
p3598
L650041L
tp3599
a(V\u4e0a\u849c\u5de5\u4e1a\u56ed
p3600
L650041L
tp3601
assS'441302'
p3602
(dp3603
g157
(lp3604
(V\u4e0b\u6885\u6e56
p3605
L516030L
tp3606
assS'360602'
p3607
(dp3608
g11
(lp3609
(V\u4e94\u6e56\u5de5\u4e1a\u533a
p3610
L335211L
tp3611
assS'330381'
p3612
(dp3613
g157
(lp3614
(V\u8be6\u60c5\u8bf7\u70b9\u51fb
p3615
L325201L
tp3616
assS'410611'
p3617
(dp3618
g11
(lp3619
(V\u6c38\u8fbe\u516c\u53f8
p3620
L458030L
tp3621
assS'320104'
p3622
(dp3623
g157
(lp3624
(V\u6682\u505c
p3625
L210096L
tp3626
assS'320105'
p3627
(dp3628
g157
(lp3629
(V\u6682\u505c
p3630
L210060L
tp3631
assS'320106'
p3632
(dp3633
g157
(lp3634
(V\u6682\u505c
p3635
L211121L
tp3636
assS'320107'
p3637
(dp3638
g157
(lp3639
(V\u5176\u4ed6\u4e0d\u9001
p3640
L210026L
tp3641
a(V\u6682\u505c
p3642
L211140L
tp3643
a(V\u6682\u505c
p3644
L210148L
tp3645
a(V\u6682\u505c
p3646
L211150L
tp3647
assS'440803'
p3648
(dp3649
g157
(lp3650
(V\u5176\u4ed6\u4e0d\u6d3e\u9001
p3651
L524002L
tp3652
assS'320102'
p3653
(dp3654
g157
(lp3655
(V\u6682\u505c
p3656
L210090L
tp3657
assS'320103'
p3658
(dp3659
g3
(lp3660
(V\u73af\u9675\u8def
p3661
L210006L
tp3662
assS'130323'
p3663
(dp3664
g157
(lp3665
(V\u77f3\u95e8\u5be8
p3666
L966300L
tp3667
a(V\u5927\u65b0\u5be8
p3668
L966300L
tp3669
a(V\u8336\u68da
p3670
L966300L
tp3671
assS'232721'
p3672
(dp3673
g11
(lp3674
(V\u97e9\u5bb6\u56ed\u9547
p3675
L150103L
tp3676
a(V\u4e09\u5361\u4e61
p3677
L150103L
tp3678
a(V\u91d1\u5c71\u4e61
p3679
L150103L
tp3680
a(V\u5174\u534e\u4e61
p3681
L150103L
tp3682
a(V\u9e25\u6d66\u4e61
p3683
L150103L
tp3684
a(V\u767d\u94f6\u7eb3\u9102\u4f26\u6625\u65cf\u4e61
p3685
L150103L
tp3686
a(V\u97e9\u5bb6\u56ed\u9547
p3687
L150103L
tp3688
a(V\u4e09\u5361\u4e61
p3689
L150103L
tp3690
a(V\u91d1\u5c71\u4e61
p3691
L150103L
tp3692
a(V\u5174\u534e\u4e61
p3693
L150103L
tp3694
a(V\u9e25\u6d66\u4e61
p3695
L150103L
tp3696
a(V\u767d\u94f6\u7eb3\u9102\u4f26\u6625\u65cf\u4e61
p3697
L150103L
tp3698
assS'130281'
p3699
(dp3700
g3
(lp3701
(V\u6587\u5229\u80e1\u540c
p3702
L964200L
tp3703
a(V\u6587\u5fb7\u80e1\u540c
p3704
L964200L
tp3705
a(V\u6587\u541b\u80e1\u540c
p3706
L964200L
tp3707
a(V\u534e\u8d44\u80e1\u540c
p3708
L964200L
tp3709
a(V\u5efa\u5e86\u80e1\u540c
p3710
L964200L
tp3711
assS'371301'
p3712
(dp3713
g157
(lp3714
(V\u6682\u505c
p3715
L276003L
tp3716
assS'371302'
p3717
(dp3718
g11
(lp3719
(V\u6c64\u6cb3\u9547
p3720
L276001L
tp3721
a(V\u516b\u6e56\u9547
p3722
L276001L
tp3723
assS'222401'
p3724
(dp3725
g157
(lp3726
(V\u5317\u5174\u8def\u4ee5\u5317
p3727
L133002L
tp3728
a(V\u5dde\u5bbe\u9986\u4ee5\u5357
p3729
L133008L
tp3730
a(V\u5de5\u519c\u4e00\u961f
p3731
L133005L
tp3732
a(V\u4e8c\u961f
p3733
L133005L
tp3734
a(V\u5176\u4ed6\u4e0d\u9001
p3735
L133001L
tp3736
assS'610113'
p3737
(dp3738
g11
(lp3739
(V\u516b\u4e00\u6751
p3740
L710009L
tp3741
assS'610112'
p3742
(dp3743
g157
(lp3744
(V\u9547\u4e0d\u9001
p3745
L710071L
tp3746
a(V\u6cb9\u8102\u4ed3\u5e93
p3747
L710144L
tp3748
assS'610111'
p3749
(dp3750
g3
(lp3751
(V\u6d50\u6cb3\u897f\u8def
p3752
L710068L
tp3753
a(V\u65b0\u6865\u8def
p3754
L710068L
tp3755
assS'610116'
p3756
(dp3757
g157
(lp3758
(V\u534e\u4e25\u5bfa
p3759
L710038L
tp3760
assS'430111'
p3761
(dp3762
g157
(lp3763
(V\u5176\u5b83\u4e0d\u9001
p3764
L410007L
tp3765
assS'330822'
p3766
(dp3767
g157
(lp3768
(V\u90ca\u533a\u4e0d\u6d3e\u9001
p3769
L324200L
tp3770
a(V\u90ca\u533a\u4e0d\u6d3e\u9001
p3771
L324200L
tp3772
assS'510802'
p3773
(dp3774
g11
(lp3775
(V\u7231\u56fd\u6751
p3776
L628018L
tp3777
a(V\u77f3\u6865\u6751
p3778
L628018L
tp3779
a(V\u5b89\u5168\u6751
p3780
L628018L
tp3781
a(V\u7d2b\u5357\u6751
p3782
L628018L
tp3783
assS'321183'
p3784
(dp3785
g11
(lp3786
(V\u53e6\u77f3\u72ee\u9547\u5bf9\u9762\u7cfb\u5357\u4eac\u571f\u6865\u9547
p3787
L212400L
tp3788
assS'370902'
p3789
(dp3790
g11
(lp3791
(V\u5929\u5916\u6751
p3792
L271005L
tp3793
assS'653221'
p3794
(dp3795
g157
(lp3796
(V\u5176\u5b83\u4e0d\u9001
p3797
L848000L
tp3798
a(V\u6d1b\u6d66\u53bf
p3799
L848000L
tp3800
a(V\u6c11\u4e30\u53bf
p3801
L848000L
tp3802
a(V\u76ae\u5c71\u53bf
p3803
L848000L
tp3804
a(V\u7b56\u52d2\u53bf
p3805
L848000L
tp3806
a(V\u4e8e\u7530\u53bf
p3807
L848000L
tp3808
a(V\u58a8\u7389\u53bf
p3809
L848000L
tp3810
assS'150221'
p3811
(dp3812
g11
(lp3813
(V\u5927\u57ce\u897f\u5de5\u4e1a\u56ed\u533a
p3814
L914100L
tp3815
a(V\u5efa\u8bbe\u5c0f\u533a
p3816
L914100L
tp3817
a(V\u56e2\u7ed3\u5c0f\u533a
p3818
L914100L
tp3819
a(V\u83cf\u6cfd\u5c0f\u533a
p3820
L914100L
tp3821
a(V\u6d88\u9632\u5927\u961f
p3822
L914100L
tp3823
assS'360302'
p3824
(dp3825
g11
(lp3826
(V\u4e07\u9f99\u5c71\u4e61
p3827
L337200L
tp3828
a(V\u957f\u4e30\u4e61
p3829
L337200L
tp3830
assS'652801'
p3831
(dp3832
g11
(lp3833
(V\u5f00\u53d1\u533a
p3834
L841000L
tp3835
assS'210802'
p3836
(dp3837
g11
(lp3838
(V\u8170\u5c6f\u6751
p3839
L115004L
tp3840
assS'120106'
p3841
(dp3842
g157
(lp3843
(V\u5176\u4ed6\u4e0d\u9001
p3844
L300083L
tp3845
a(V\u6682\u505c
p3846
L300141L
tp3847
assS'120105'
p3848
(dp3849
g157
(lp3850
(V\u6682\u505c
p3851
L300180L
tp3852
assS'120103'
p3853
(dp3854
g157
(lp3855
(V\u5176\u4ed6\u4e0d\u9001
p3856
L300084L
tp3857
a(V\u5176\u4ed6\u4e0d\u9001
p3858
L300055L
tp3859
a(V\u6682\u505c
p3860
L300078L
tp3861
a(V\u6682\u505c
p3862
L300009L
tp3863
a(V\u6682\u505c
p3864
L300030L
tp3865
a(V\u6682\u505c
p3866
L300160L
tp3867
a(V\u6682\u505c
p3868
L300174L
tp3869
a(V\u6682\u505c
p3870
L300029L
tp3871
a(V\u6682\u505c
p3872
L300175L
tp3873
a(V\u6682\u65e0
p3874
L300038L
tp3875
a(V\u5176\u4ed6\u4e0d\u9001
p3876
L300055L
tp3877
a(V\u5176\u4ed6\u4e0d\u9001
p3878
L300084L
tp3879
assS'120101'
p3880
(dp3881
g157
(lp3882
(V-br
p3883
L300013L
tp3884
assS'610204'
p3885
(dp3886
g157
(lp3887
(V\u77ff\u533a
p3888
L710049L
tp3889
a(V\u5c71\u533a
p3890
L710049L
tp3891
a(V\u5c71\u4e0a
p3892
L710049L
tp3893
a(V\u4e61\u9547\u4e0d\u6d3e\u9001
p3894
L710049L
tp3895
assS'420606'
p3896
(dp3897
g157
(lp3898
(V\u5176\u4ed6\u4e0d\u9001
p3899
L441007L
tp3900
a(V\u9c7c\u6881\u5dde
p3901
L441003L
tp3902
a(V\u5176\u4ed6\u4e0d\u9001
p3903
L441007L
tp3904
assS'421202'
p3905
(dp3906
g157
(lp3907
(V107\u56fd\u9053
p3908
L437037L
tp3909
assS'411002'
p3910
(dp3911
g157
(lp3912
(V\u5176\u4ed6\u4e0d\u9001
p3913
L461009L
tp3914
assS'341421'
p3915
(dp3916
g11
(lp3917
(V\u51b6\u7236\u5c71\u9547
p3918
L231500L
tp3919
a(V\u4e07\u5c71\u9547
p3920
L231500L
tp3921
a(V\u6c64\u6c60\u9547
p3922
L231500L
tp3923
a(V\u90ed\u6cb3\u9547
p3924
L231500L
tp3925
a(V\u91d1\u725b\u9547
p3926
L231500L
tp3927
a(V\u77f3\u5934\u9547
p3928
L231500L
tp3929
a(V\u540c\u5927\u9547
p3930
L231500L
tp3931
a(V\u767d\u5c71\u9547
p3932
L231500L
tp3933
a(V\u76db\u6865\u9547
p3934
L231500L
tp3935
a(V\u9f99\u6865\u9547
p3936
L231500L
tp3937
a(V\u77fe\u5c71\u9547
p3938
L231500L
tp3939
a(V\u7f57\u6cb3\u9547
p3940
L231500L
tp3941
a(V\u6ce5\u6cb3\u9547
p3942
L231500L
tp3943
a(V\u4e50\u6865\u9547
p3944
L231500L
tp3945
assS'320602'
p3946
(dp3947
g157
(lp3948
(V\u7531
p3949
L226001L
tp3950
a(V\u6d3e\u9001
p3951
L226001L
tp3952
assS'230522'
p3953
(dp3954
g157
(lp3955
(V\u534e\u745e\u56ed
p3956
L155800L
tp3957
assS'230524'
p3958
(dp3959
g11
(lp3960
(V\u897f\u6797\u5b50\u4e61
p3961
L155700L
tp3962
a(V\u56db\u6392\u4e61
p3963
L155700L
tp3964
a(V\u5c0f\u4f73\u6cb3\u4e61
p3965
L155700L
tp3966
a(V\u5c71\u91cc\u4e61
p3967
L155700L
tp3968
a(V\u897f\u4e30\u9547
p3969
L155700L
tp3970
a(V\u5927\u901a\u6cb3\u4e61
p3971
L155700L
tp3972
a(V\u4e94\u6797\u6d1e\u9547
p3973
L155700L
tp3974
assS'450105'
p3975
(dp3976
g11
(lp3977
(V\u534e\u6797\u516c\u53f8
p3978
L538002L
tp3979
a(V\u4e0a\u534e\u516c\u53f8
p3980
L538002L
tp3981
a(V\u534e\u6da6\u516c\u53f8
p3982
L538002L
tp3983
a(V\u5728\u5999\u9547
p3984
L538002L
tp3985
a(V\u53eb\u5b89\u4e61
p3986
L538002L
tp3987
a(V\u534e\u5170\u4e61
p3988
L538002L
tp3989
a(V\u5357\u5c4f\u7476\u65cf\u4e61
p3990
L538002L
tp3991
a(V\u5e73\u798f\u4e61
p3992
L538002L
tp3993
a(V\u90a3\u7434\u4e61
p3994
L538002L
tp3995
a(V\u516c\u6b63\u4e61
p3996
L538002L
tp3997
assS'450103'
p3998
(dp3999
g157
(lp4000
(V\u5176\u4ed6\u4e0d\u9001
p4001
L530056L
tp4002
assS'532924'
p4003
(dp4004
g157
(lp4005
(V\u9e21\u8db3\u5c71
p4006
L650033L
tp4007
assS'370786'
p4008
(dp4009
g11
(lp4010
(V\u9f99\u6c60\u9547
p4011
L261300L
tp4012
a(V\u5317\u5b5f\u9547
p4013
L261300L
tp4014
a(V\u4e0b\u8425\u9547
p4015
L261300L
tp4016
assS'150581'
p4017
(dp4018
g11
(lp4019
(V\u7b2c\u56db\u5c0f\u5b66
p4020
L928010L
tp4021
a(V\u7b2c\u56db\u4e2d\u5b66
p4022
L928010L
tp4023
assS'511502'
p4024
(dp4025
g157
(lp4026
(V\u697c\u575d\u7247\u533a
p4027
L657800L
tp4028
assS'451102'
p4029
(dp4030
g157
(lp4031
(V\u706b\u8f66\u7ad9
p4032
L542800L
tp4033
a(V\u65b0\u6c14\u8f66\u603b\u7ad9
p4034
L542800L
tp4035
a(V\u662d\u5e73\u53bf
p4036
L542800L
tp4037
assS'510703'
p4038
(dp4039
g11
(lp4040
(V\u897f\u5357\u79d1\u6280\u5927\u5b66\u57ce\u5e02\u5b66\u9662
p4041
L621002L
tp4042
assS'440923'
p4043
(dp4044
g11
(lp4045
(V\u6797\u5934\u9547
p4046
L525400L
tp4047
a(V\u5927\u8859\u9547
p4048
L525400L
tp4049
a(V\u89c2\u73e0\u9547
p4050
L525400L
tp4051
a(V\u90a3\u970d\u9547
p4052
L525400L
tp4053
a(V\u7f57\u5751\u9547
p4054
L525400L
tp4055
a(V\u971e\u6d1e\u9547
p4056
L525400L
tp4057
a(V\u5761\u5fc3\u9547
p4058
L525400L
tp4059
a(V\u4e03\u5f84\u9547
p4060
L525400L
tp4061
a(V\u9ec4\u5cad\u9547
p4062
L525400L
tp4063
a(V\u9a6c\u8e0f\u9547
p4064
L525400L
tp4065
a(V\u5cad\u95e8\u9547
p4066
L525400L
tp4067
a(V\u6c99\u9662\u9547
p4068
L525400L
tp4069
a(V\u65e6\u573a\u9547
p4070
L525400L
tp4071
a(V\u6797\u5934\u9547
p4072
L525400L
tp4073
a(V\u5927\u8859\u9547
p4074
L525400L
tp4075
a(V\u89c2\u73e0\u9547
p4076
L525400L
tp4077
a(V\u90a3\u970d\u9547
p4078
L525400L
tp4079
a(V\u7f57\u5751\u9547
p4080
L525400L
tp4081
a(V\u971e\u6d1e\u9547
p4082
L525400L
tp4083
a(V\u5761\u5fc3\u9547
p4084
L525400L
tp4085
a(V\u4e03\u5f84\u9547
p4086
L525400L
tp4087
a(V\u9ec4\u5cad\u9547
p4088
L525400L
tp4089
a(V\u9a6c\u8e0f\u9547
p4090
L525400L
tp4091
a(V\u5cad\u95e8\u9547
p4092
L525400L
tp4093
a(V\u6c99\u9662\u9547
p4094
L525400L
tp4095
a(V\u65e6\u573a\u9547
p4096
L525400L
tp4097
assS'430202'
p4098
(dp4099
g157
(lp4100
(V\u4e91\u9f99\u793a\u8303\u533a
p4101
L412010L
tp4102
a(V\u7530\u5fc3\u9ad8\u79d1\u56ed
p4103
L412010L
tp4104
assS'361021'
p4105
(dp4106
g157
(lp4107
(V\u4e0d\u5230
p4108
L344700L
tp4109
a(V\u4e0d\u5230
p4110
L344700L
tp4111
assS'330421'
p4112
(dp4113
g157
(lp4114
(V\u6d3e\u9001
p4115
L314100L
tp4116
assS'420505'
p4117
(dp4118
g11
(lp4119
(V\u5b9c\u5316\u96c6\u56e2
p4120
L443007L
tp4121
assS'500101'
p4122
(dp4123
g157
(lp4124
(V\u54cd\u6c34\u5168\u5883
p4125
L404121L
tp4126
assS'500105'
p4127
(dp4128
g157
(lp4129
(V\u6e89\u8c30\u6eaa
p4130
L400014L
tp4131
a(V\u98de\u6765\u5bfa\u516c\u5893
p4132
L400080L
tp4133
assS'500106'
p4134
(dp4135
g157
(lp4136
(V\u5176\u5b83\u4e0d\u9001
p4137
L630030L
tp4138
assS'500107'
p4139
(dp4140
g157
(lp4141
(V\u7f8e\u6bcf\u5bb6
p4142
L630021L
tp4143
a(V\u5751\u6728\u573a
p4144
L630021L
tp4145
a(V\u5171\u548c\u67515\u7ec4
p4146
L630021L
tp4147
a(V\u660e\u5b89\u534e\u5bcc
p4148
L630021L
tp4149
assS'500108'
p4150
(dp4151
g11
(lp4152
(V\u6cc9\u5c71\u6751
p4153
L400011L
tp4154
a(V\u9f99\u4e95\u6751
p4155
L400011L
tp4156
a(V\u91d1\u7af9\u6751
p4157
L400011L
tp4158
assS'222424'
p4159
(dp4160
g157
(lp4161
(V\u5929\u6865\u5cad
p4162
L133200L
tp4163
a(V\u6625\u9633
p4164
L133200L
tp4165
a(V\u7f57\u5b50\u6c9f
p4166
L133200L
tp4167
a(V\u590d\u5174
p4168
L133200L
tp4169
a(V\u767e\u8349\u6c9f
p4170
L133200L
tp4171
assS'350629'
p4172
(dp4173
g11
(lp4174
(V\u9ad8\u5b89\u9547
p4175
L363800L
tp4176
a(V\u9ad8\u8f66\u4e61
p4177
L363800L
tp4178
a(V\u6e56\u6797\u4e61
p4179
L363800L
tp4180
a(V\u826f\u6751\u4e61
p4181
L363800L
tp4182
assS'231081'
p4183
(dp4184
g157
(lp4185
(V\u7efc\u5408\u4fdd\u7a0e\u533a
p4186
L157300L
tp4187
assS'231083'
p4188
(dp4189
g11
(lp4190
(V\u804c\u4e1a\u9ad8\u4e2d
p4191
L157100L
tp4192
assS'130105'
p4193
(dp4194
g157
(lp4195
(V\u4e2d\u5174\u7269\u6d41\u56ed
p4196
L950002L
tp4197
a(V\u4e1c\u4ef0\u9675
p4198
L950003L
tp4199
a(V\u4e2d\u4ef0\u9675
p4200
L950003L
tp4201
a(V\u5316\u5de5\u65b0\u533a
p4202
L950016L
tp4203
a(V\u5176\u5b83\u4e0d\u9001
p4204
L973000L
tp4205
a(V\u6682\u505c
p4206
L950064L
tp4207
a(V\u5176\u4ed6\u4e0d\u9001
p4208
L950047L
tp4209
a(V\u4e1c\u4ef0\u9675
p4210
L950003L
tp4211
a(V\u4e2d\u4ef0\u9675
p4212
L950003L
tp4213
a(V\u4e1c\u4ef0\u9675
p4214
L950003L
tp4215
a(V\u4e2d\u4ef0\u9675
p4216
L950003L
tp4217
assS'130104'
p4218
(dp4219
g157
(lp4220
(V\u5176\u4ed6\u4e0d\u9001
p4221
L950047L
tp4222
a(V\u5176\u4ed6\u4e0d\u9001
p4223
L950047L
tp4224
assS'210502'
p4225
(dp4226
g3
(lp4227
(V\u9ec4\u5c71\u8def
p4228
L117001L
tp4229
assS'210503'
p4230
(dp4231
g3
(lp4232
(V\u5f69\u5317\u8def
p4233
L117202L
tp4234
a(V\u90d1\u5bb6\u8def
p4235
L117202L
tp4236
assS'331181'
p4237
(dp4238
g157
(lp4239
(V\u5176\u4ed6\u4e0d\u9001
p4240
L323700L
tp4241
assS'533421'
p4242
(dp4243
g157
(lp4244
(V\u673a\u573a
p4245
L674400L
tp4246
assS'450405'
p4247
(dp4248
g11
(lp4249
(V\u65fa\u57d4\u9547
p4250
L543000L
tp4251
a(V\u5012\u6c34\u9547
p4252
L543000L
tp4253
a(V\u77f3\u6865\u9547
p4254
L543000L
tp4255
a(V\u68a8\u57e0\u9547
p4256
L543000L
tp4257
a(V\u65b0\u5730\u9547
p4258
L543000L
tp4259
assS'140303'
p4260
(dp4261
g157
(lp4262
(V\u53ca\u5176\u5b83\u4e0d\u9001
p4263
L945200L
tp4264
a(V\uff01
p4265
L945002L
tp4266
assS'370303'
p4267
(dp4268
g11
(lp4269
(V\u8d77\u98ce\u9547
p4270
L256401L
tp4271
a(V\u8346\u5bb6\u9547
p4272
L256401L
tp4273
a(V\u9a6c\u6865\u9547
p4274
L256401L
tp4275
a(V\u9648\u5e84\u9547
p4276
L256401L
tp4277
a(V\u90a2\u5bb6\u9547
p4278
L256401L
tp4279
a(V\u7530\u5e84\u9547
p4280
L256401L
tp4281
a(V\u5468\u5bb6\u9547
p4282
L256401L
tp4283
a(V\u679c\u91cc\u9547
p4284
L256401L
tp4285
a(V\u803f\u6865\u9547
p4286
L256401L
tp4287
a(V\u9c81\u6751\u9547
p4288
L256100L
tp4289
a(V\u4e1c\u91cc\u9547
p4290
L256100L
tp4291
a(V\u897f\u91cc\u9547
p4292
L256100L
tp4293
a(V\u5927\u5f20\u5e84\u9547
p4294
L256100L
tp4295
a(V\u4e2d\u5e84\u9547
p4296
L256100L
tp4297
a(V\u5f20\u5bb6\u5761\u9547
p4298
L256100L
tp4299
a(V\u71d5\u5d16\u9547
p4300
L256100L
tp4301
a(V\u77f3\u6865\u9547
p4302
L256100L
tp4303
a(V\u9ad8\u57ce\u9547
p4304
L256300L
tp4305
a(V\u5510\u574a\u9547
p4306
L256300L
tp4307
a(V\u8d75\u5e97\u9547
p4308
L256300L
tp4309
a(V\u82b1\u6c9f\u9547
p4310
L256300L
tp4311
a(V\u5e38\u5bb6\u9547
p4312
L256300L
tp4313
a(V\u9ed1\u91cc\u5be8\u9547
p4314
L256300L
tp4315
assS'350181'
p4316
(dp4317
g11
(lp4318
(V\u6e2f\u5934\u9547
p4319
L350300L
tp4320
a(V\u4e0a\u8ff3\u9547
p4321
L350300L
tp4322
a(V\u65b0\u539d\u9547
p4323
L350300L
tp4324
a(V\u6c99\u57d4\u9547
p4325
L350300L
tp4326
a(V\u4e00\u90fd\u9547
p4327
L350300L
tp4328
a(V\u5357\u5cad\u9547
p4329
L350300L
tp4330
assS'210682'
p4331
(dp4332
g3
(lp4333
(V\u897f\u6c9f\u8def
p4334
L118100L
tp4335
assS'120110'
p4336
(dp4337
g11
(lp4338
(V\u7ef4\u5c14\u84dd\u63d0\u82b1\u56ed
p4339
L300099L
tp4340
assS'650203'
p4341
(dp4342
g11
(lp4343
(V\u5c0f\u62d0\u4e61
p4344
L834000L
tp4345
a(V\u5357\u6e56\u4e8c\u671f
p4346
L834000L
tp4347
a(V\u897f\u670b\u6f6d\u5c0f\u533a
p4348
L834000L
tp4349
assS'532901'
p4350
(dp4351
g11
(lp4352
(V\u9547
p4353
L671001L
tp4354
assS'120113'
p4355
(dp4356
g3
(lp4357
(V\u6768\u5317\u516c\u8def
p4358
L300075L
tp4359
assS'411702'
p4360
(dp4361
g11
(lp4362
(V\u5de5\u4e1a\u56ed\u533a
p4363
L463600L
tp4364
assS'511602'
p4365
(dp4366
g3
(lp4367
(V\u5e7f\u6b66\u8def
p4368
L638500L
tp4369
assS'451031'
p4370
(dp4371
g11
(lp4372
(V\u542b\u5c71\u6751
p4373
L531403L
tp4374
a(V\u6c11\u5f3a\u6751\u53ca\u5176\u4ed6\u4e61\u9547
p4375
L531403L
tp4376
assS'330225'
p4377
(dp4378
g157
(lp4379
(V\u5176\u5b83\u4e0d\u9001
p4380
L315700L
tp4381
assS'330226'
p4382
(dp4383
g157
(lp4384
(V\u504f\u8fdc\u5c71\u533a
p4385
L315600L
tp4386
a(V\u5176\u5b83\u4e0d\u9001
p4387
L315611L
tp4388
a(V\u5176\u5b83\u4e0d\u9001
p4389
L315602L
tp4390
a(V\u5176\u5b83\u4e0d\u9001
p4391
L315603L
tp4392
a(V\u5176\u5b83\u4e0d\u9001
p4393
L315604L
tp4394
assS'441303'
p4395
(dp4396
g157
(lp4397
(V\u5176\u5b83\u4e0d\u6536\u9001
p4398
L516006L
tp4399
a(V\u5176\u5b83\u4e0d\u9001
p4400
L516067L
tp4401
assS'421023'
p4402
(dp4403
g11
(lp4404
(V\u65b0\u6c9f\u9547
p4405
L433310L
tp4406
a(V\u9f9a\u573a\u9547
p4407
L433310L
tp4408
a(V\u5468\u8001\u5634\u9547
p4409
L433310L
tp4410
a(V\u9ec4\u6b47\u53e3\u9547
p4411
L433310L
tp4412
a(V\u7a0b\u96c6\u9547
p4413
L433310L
tp4414
a(V\u5206\u76d0\u9547
p4415
L433310L
tp4416
a(V\u6bdb\u5e02\u9547
p4417
L433310L
tp4418
a(V\u798f\u7530\u5bfa\u9547
p4419
L433310L
tp4420
a(V\u4e0a\u8f66\u6e7e\u9547
p4421
L433310L
tp4422
a(V\u6c74\u6cb3\u9547
p4423
L433310L
tp4424
a(V\u5c3a\u516b\u9547
p4425
L433310L
tp4426
a(V\u7f51\u5e02\u9547
p4427
L433310L
tp4428
a(V\u4e09\u6d32\u9547
p4429
L433310L
tp4430
a(V\u6865\u5e02\u9547
p4431
L433310L
tp4432
a(V\u68cb\u76d8\u4e61
p4433
L433310L
tp4434
a(V\u67d8\u6728\u4e61
p4435
L433310L
tp4436
assS'421022'
p4437
(dp4438
g11
(lp4439
(V\u5939\u7af9\u56ed\u9547
p4440
L434300L
tp4441
a(V\u95f8\u53e3\u9547
p4442
L434300L
tp4443
a(V\u85d5\u6c60\u9547
p4444
L434300L
tp4445
a(V\u9ec4\u5c71\u5934\u9547
p4446
L434300L
tp4447
a(V\u5b5f\u5bb6\u6eaa\u9547
p4448
L434300L
tp4449
a(V\u7ae0\u5e84\u94fa\u9547
p4450
L434300L
tp4451
a(V\u72ee\u5b50\u53e3\u9547
p4452
L434300L
tp4453
a(V\u6591\u7af9\u5f53\u9547
p4454
L434300L
tp4455
a(V\u6bdb\u5bb6\u6e2f\u9547
p4456
L434300L
tp4457
a(V\u7518\u5bb6\u5382\u4e61
p4458
L434300L
tp4459
assS'441225'
p4460
(dp4461
g11
(lp4462
(V\u53ef\u5f85\u5ba2\u8f6c\u9001\u5404\u9547
p4463
L526500L
tp4464
assS'522223'
p4465
(dp4466
g157
(lp4467
(V\u52b3\u6559\u6240
p4468
L554000L
tp4469
a(V\u770b\u5b88\u6240
p4470
L554000L
tp4471
a(V\u5927\u9f99\u6536\u8d39\u7ad9
p4472
L554000L
tp4473
assS'450202'
p4474
(dp4475
g11
(lp4476
(V\u5404\u4e61\u9547
p4477
L545100L
tp4478
assS'130230'
p4479
(dp4480
g157
(lp4481
(V\u4e00\u519c\u573a
p4482
L963018L
tp4483
a(V\u4e09\u519c\u573a
p4484
L963018L
tp4485
a(V\u56db\u519c\u573a
p4486
L963018L
tp4487
a(V\u4e94\u519c\u573a
p4488
L963018L
tp4489
a(V\u516d\u519c\u573a
p4490
L963018L
tp4491
a(V\u4e03\u519c\u573a
p4492
L963018L
tp4493
a(V\u516b\u519c\u573a
p4494
L963018L
tp4495
a(V\u4e5d\u519c\u573a
p4496
L963018L
tp4497
a(V\u5341\u519c\u573a
p4498
L963018L
tp4499
a(V\u5341\u4e00\u519c\u573a
p4500
L963018L
tp4501
assS'320412'
p4502
(dp4503
g157
(lp4504
(V\u6682\u505c
p4505
L213072L
tp4506
a(V\u6682\u505c
p4507
L213127L
tp4508
assS'630103'
p4509
(dp4510
g3
(lp4511
(V\u4ed8\u4e1c\u8def
p4512
L810002L
tp4513
a(V\u5b81\u4e92\u8def
p4514
L810002L
tp4515
assS'130402'
p4516
(dp4517
g157
(lp4518
(V\u6682\u505c
p4519
L956010L
tp4520
a(V\u6682\u505c
p4521
L956016L
tp4522
a(V\u6682\u505c
p4523
L956024L
tp4524
a(V\u6682\u505c
p4525
L956029L
tp4526
assS'511622'
p4527
(dp4528
g157
(lp4529
(V\u534e\u5c01
p4530
L638503L
tp4531
a(V\u5174\u9686
p4532
L638503L
tp4533
a(V\u70c8\u9762
p4534
L638503L
tp4535
a(V\u4e07\u5584
p4536
L638503L
tp4537
a(V\u590d\u5174
p4538
L638503L
tp4539
a(V\u8857\u5b50
p4540
L638503L
tp4541
a(V\u8d70\u9a6c
p4542
L638503L
tp4543
assS'330382'
p4544
(dp4545
g157
(lp4546
(V\u96c1\u8361\u98ce\u666f\u533a
p4547
L325600L
tp4548
a(V\u78d0\u77f3\u53d1\u7535\u5382
p4549
L325600L
tp4550
assS'440106'
p4551
(dp4552
g157
(lp4553
(V\u5176\u5b83\u4e0d\u6536\u9001
p4554
L511408L
tp4555
a(V\u65e0
p4556
L511448L
tp4557
a(V\u6682\u505c
p4558
L510027L
tp4559
assS'440104'
p4560
(dp4561
g157
(lp4562
(V\u5176\u4ed6\u4e0d\u9001
p4563
L510559L
tp4564
a(V\u6682\u505c
p4565
L510514L
tp4566
assS'220521'
p4567
(dp4568
g11
(lp4569
(V\u6cb3\u53e3\u805a\u946b\u5f00\u53d1\u533a
p4570
L134100L
tp4571
assS'330127'
p4572
(dp4573
g11
(lp4574
(V\u5929\u5c7f\u5ea6\u5047\u6751
p4575
L311700L
tp4576
assS'330122'
p4577
(dp4578
g11
(lp4579
(V\u949f\u5c71\u4e61
p4580
L311500L
tp4581
a(V\u6b4c\u821e\u4e61
p4582
L311500L
tp4583
a(V\u5ce8\u5c71\u4e61
p4584
L311500L
tp4585
assS'360829'
p4586
(dp4587
g157
(lp4588
(V\u5927\u5149\u5c71\u7164\u77ff
p4589
L343200L
tp4590
assS'360828'
p4591
(dp4592
g11
(lp4593
(V\u6e56\u4e18\u5de5\u4e1a\u533a
p4594
L343800L
tp4595
assS'510681'
p4596
(dp4597
g11
(lp4598
(V\u4e09\u6c34\u9547
p4599
L618300L
tp4600
a(V\u5357\u5174\u9547
p4601
L618300L
tp4602
a(V\u91d1\u8f6e\u9547
p4603
L618300L
tp4604
a(V\u5174\u9686\u9547
p4605
L618300L
tp4606
a(V\u65b0\u534e\u9547
p4607
L618300L
tp4608
a(V\u677e\u6797\u9547
p4609
L618300L
tp4610
a(V\u65b0\u5e73\u9547
p4611
L618300L
tp4612
a(V\u5357\u4e30\u9547
p4613
L618300L
tp4614
assS'360822'
p4615
(dp4616
g11
(lp4617
(V\u57ce\u897f\u5de5\u4e1a\u533a
p4618
L331600L
tp4619
a(V\u7a91\u91cc\u65b0\u6751
p4620
L331600L
tp4621
a(V\u94c1\u8def\u65b0\u6751
p4622
L331600L
tp4623
a(V\u5cad\u4e0b\u65b0\u6751
p4624
L331600L
tp4625
a(V\u57ce\u897f\u5de5\u4e1a\u533a
p4626
L331600L
tp4627
a(V\u7a91\u91cc\u65b0\u6751
p4628
L331600L
tp4629
a(V\u94c1\u8def\u65b0\u6751
p4630
L331600L
tp4631
a(V\u5cad\u4e0b\u65b0\u6751
p4632
L331600L
tp4633
assS'370783'
p4634
(dp4635
g157
(lp4636
(V\u4e3a\u5165\u5e93\u4ef6
p4637
L262700L
tp4638
a(V\u624b\u7eed\u7e41\u7410
p4639
L262700L
tp4640
assS'370781'
p4641
(dp4642
g11
(lp4643
(V\u9ec4\u697c\u9547
p4644
L262500L
tp4645
a(V\u5f25\u6cb3\u9547
p4646
L262500L
tp4647
a(V\u90d1\u6bcd\u9547
p4648
L262500L
tp4649
a(V\u4f55\u5b98\u9547
p4650
L262500L
tp4651
a(V\u9ad8\u67f3\u9547
p4652
L262500L
tp4653
a(V\u90b5\u5e84\u9547
p4654
L262500L
tp4655
assS'360730'
p4656
(dp4657
g157
(lp4658
(V\u5316\u5de5\u5382\u4ee5\u5317
p4659
L342800L
tp4660
assS'341181'
p4661
(dp4662
g11
(lp4663
(V\u5927\u901a\u9547
p4664
L239300L
tp4665
a(V\u90d1\u96c6\u9547
p4666
L239300L
tp4667
a(V\u5f20\u94fa\u9547
p4668
L239300L
tp4669
a(V\u6c38\u4e30\u9547
p4670
L239300L
tp4671
assS'341182'
p4672
(dp4673
g157
(lp4674
(V\u6c6a\u51b2\u4e0d\u9001
p4675
L239400L
tp4676
assS'150303'
p4677
(dp4678
g11
(lp4679
(V\u62c9\u50e7\u5e99\u9547
p4680
L916003L
tp4681
a(V\u897f\u6765\u5cf0\u5de5\u4e1a\u56ed
p4682
L916003L
tp4683
assS'150302'
p4684
(dp4685
g157
(lp4686
(V\u4e4c\u6d77\u7535\u5382
p4687
L916000L
tp4688
assS'451021'
p4689
(dp4690
g11
(lp4691
(V\u57ce\u4e1c\u5de5\u4e1a\u56ed
p4692
L533600L
tp4693
assS'321302'
p4694
(dp4695
g157
(lp4696
(V\u5176\u4ed6\u4e0d\u6d3e\u9001
p4697
L223801L
tp4698
assS'370802'
p4699
(dp4700
g157
(lp4701
(V\u5176\u4ed6\u4e0d\u9001
p4702
L272101L
tp4703
a(V\u5176\u4ed6\u4e0d\u9001
p4704
L272101L
tp4705
assS'610122'
p4706
(dp4707
g157
(lp4708
(V\u5176\u5b83\u4e0d\u9001
p4709
L710500L
tp4710
assS'230406'
p4711
(dp4712
g157
(lp4713
(V\u8fde\u961f
p4714
L154109L
tp4715
assS'620821'
p4716
(dp4717
g11
(lp4718
(V\u7389\u90fd\u9547
p4719
L744002L
tp4720
a(V\u9ad8\u5e73\u9547
p4721
L744002L
tp4722
a(V\u8354\u5821\u9547
p4723
L744002L
tp4724
a(V\u738b\u6751\u9547
p4725
L744002L
tp4726
a(V\u7a91\u5e97\u9547
p4727
L744002L
tp4728
a(V\u6c6d\u4e30\u4e61
p4729
L744002L
tp4730
a(V\u7f57\u6c49\u6d1e\u4e61
p4731
L744002L
tp4732
a(V\u6cfe\u660e\u4e61
p4733
L744002L
tp4734
a(V\u7ea2\u6cb3\u4e61
p4735
L744002L
tp4736
a(V\u98de\u4e91\u4e61
p4737
L744002L
tp4738
a(V\u592a\u5e73\u4e61
p4739
L744002L
tp4740
a(V\u4e30\u53f0\u4e61
p4741
L744002L
tp4742
a(V\u515a\u539f\u4e61
p4743
L744002L
tp4744
assS'532522'
p4745
(dp4746
g11
(lp4747
(V\u8349\u575d\u9547
p4748
L661100L
tp4749
a(V\u51b7\u6cc9\u9547
p4750
L661100L
tp4751
assS'330212'
p4752
(dp4753
g11
(lp4754
(V\u9053\u6210\u5c99\u6751
p4755
L315711L
tp4756
assS'231102'
p4757
(dp4758
g157
(lp4759
(V\u7a17\u5b50\u6c9f
p4760
L164300L
tp4761
assS'220282'
p4762
(dp4763
g157
(lp4764
(V\u8001\u91d1\u5382
p4765
L132400L
tp4766
assS'440785'
p4767
(dp4768
g11
(lp4769
(V\u4e1c\u6210\u9547
p4770
L529411L
tp4771
a(V\u6c99\u6e56\u9547
p4772
L529411L
tp4773
a(V\u725b\u6c5f\u9547
p4774
L529411L
tp4775
a(V\u6a2a\u9642\u9547
p4776
L529411L
tp4777
a(V\u5927\u7530\u9547
p4778
L529411L
tp4779
a(V\u826f\u897f\u9547
p4780
L529411L
tp4781
a(V\u90a3\u5409\u9547
p4782
L529411L
tp4783
a(V\u4e1c\u6210\u9547
p4784
L529411L
tp4785
a(V\u6c99\u6e56\u9547
p4786
L529411L
tp4787
a(V\u725b\u6c5f\u9547
p4788
L529411L
tp4789
a(V\u6a2a\u9642\u9547
p4790
L529411L
tp4791
a(V\u5927\u7530\u9547
p4792
L529411L
tp4793
a(V\u826f\u897f\u9547
p4794
L529411L
tp4795
a(V\u90a3\u5409\u9547
p4796
L529411L
tp4797
assS'210204'
p4798
(dp4799
g157
(lp4800
(V\u5176\u5b83\u4e0d\u9001
p4801
L116022L
tp4802
a(V\u5176\u5b83\u4e0d\u9001
p4803
L116021L
tp4804
assS'211402'
p4805
(dp4806
g157
(lp4807
(V\u52a0\u7891\u5ca9
p4808
L125001L
tp4809
a(V\u738b\u5bb6\u5e97
p4810
L125001L
tp4811
a(V\u79cb\u5b50\u6c9f
p4812
L125001L
tp4813
a(V\u660e\u6c34
p4814
L125001L
tp4815
a(V\u8303\u5bb6
p4816
L125001L
tp4817
a(V\u5927\u738b\u5e99
p4818
L125001L
tp4819
a(V\u5bbd\u5e2e
p4820
L125001L
tp4821
a(V\u897f\u5e73
p4822
L125001L
tp4823
a(V\u9ad8\u7538\u5b50
p4824
L125001L
tp4825
a(V\u7ee5\u4e2d\u53d1\u7535\u5382
p4826
L125001L
tp4827
a(V\u5176\u4ed6\u4e0d\u9001
p4828
L125007L
tp4829
assS'652828'
p4830
(dp4831
g157
(lp4832
(V\u9a6c\u5170
p4833
L841011L
tp4834
assS'441201'
p4835
(dp4836
g157
(lp4837
(V\u6682\u505c
p4838
L526002L
tp4839
a(V\u6682\u505c
p4840
L526003L
tp4841
a(V\u6682\u505c
p4842
L526005L
tp4843
a(V\u6682\u505c
p4844
L526013L
tp4845
assS'361102'
p4846
(dp4847
g157
(lp4848
(V\u5176\u5b83\u4e0d\u5230
p4849
L334000L
tp4850
assS'620702'
p4851
(dp4852
g157
(lp4853
(V\u8083\u5357\u53bf
p4854
L734000L
tp4855
assS'430602'
p4856
(dp4857
g11
(lp4858
(V\u6c38\u6d4e\u4e61
p4859
L414009L
tp4860
assS'431202'
p4861
(dp4862
g157
(lp4863
(V\u5176\u5b83\u4e0d\u9001
p4864
L418003L
tp4865
assS'130633'
p4866
(dp4867
g11
(lp4868
(V\u6881\u683c\u5e84\u9547
p4869
L974200L
tp4870
a(V\u897f\u9675\u9547
p4871
L974200L
tp4872
a(V\u88f4\u5c71\u9547
p4873
L974200L
tp4874
a(V\u5858\u6e56\u9547
p4875
L974200L
tp4876
a(V\u72fc\u7259\u5c71\u9547
p4877
L974200L
tp4878
a(V\u826f\u5c97\u9547
p4879
L974200L
tp4880
a(V\u7d2b\u8346\u5173\u9547
p4881
L974200L
tp4882
a(V\u6865\u5934\u4e61
p4883
L974200L
tp4884
a(V\u767d\u9a6c\u4e61
p4885
L974200L
tp4886
a(V\u6d41\u4e95\u4e61
p4887
L974200L
tp4888
a(V\u9ad8\u6751\u4e61
p4889
L974200L
tp4890
a(V\u9ad8\u964c\u4e61
p4891
L974200L
tp4892
a(V\u5927\u9f99\u534e\u4e61
p4893
L974200L
tp4894
a(V\u5b89\u683c\u5e84\u4e61
p4895
L974200L
tp4896
a(V\u51cc\u4e91\u518c\u56de\u65cf\u6ee1\u65cf\u4e61
p4897
L974200L
tp4898
a(V\u897f\u5c71\u5317\u4e61
p4899
L974200L
tp4900
a(V\u5c09\u90fd\u4e61
p4901
L974200L
tp4902
a(V\u72ec\u4e50\u4e61
p4903
L974200L
tp4904
a(V\u4e03\u5cea\u4e61
p4905
L974200L
tp4906
a(V\u5bcc\u5c97\u4e61
p4907
L974200L
tp4908
a(V\u5761\u4ed3\u4e61
p4909
L974200L
tp4910
a(V\u725b\u5c97\u4e61
p4911
L974200L
tp4912
a(V\u6865\u5bb6\u6cb3\u4e61
p4913
L974200L
tp4914
a(V\u7518\u6cb3\u51c0\u4e61
p4915
L974200L
tp4916
a(V\u8521\u5bb6\u5cea\u4e61
p4917
L974200L
tp4918
a(V\u5357\u57ce\u53f8\u4e61
p4919
L974200L
tp4920
assS'440825'
p4921
(dp4922
g11
(lp4923
(V\u524d\u5c71\u9547
p4924
L524101L
tp4925
a(V\u9526\u548c\u9547
p4926
L524101L
tp4927
a(V\u4e0b\u6d0b\u9547
p4928
L524101L
tp4929
a(V\u9f99\u5858\u9547
p4930
L524101L
tp4931
a(V\u6d77\u5b89\u9547
p4932
L524101L
tp4933
a(V\u5927\u9ec4\u9547
p4934
L524101L
tp4935
a(V\u897f\u8fde\u9547
p4936
L524101L
tp4937
assS'640122'
p4938
(dp4939
g157
(lp4940
(V\u90e8\u961f
p4941
L750200L
tp4942
a(V\u90ae\u653f\u4fe1\u7bb1
p4943
L750200L
tp4944
assS'640121'
p4945
(dp4946
g157
(lp4947
(V\u9ec4\u7f8a\u6ee9\u519c\u573a
p4948
L750100L
tp4949
assS'130229'
p4950
(dp4951
g3
(lp4952
(V\u94c1\u5357\u4e1c\u8857
p4953
L964100L
tp4954
a(V\u94c1\u5357\u897f\u8857
p4955
L964100L
tp4956
a(V\u8c6a\u95e8\u8def
p4957
L964100L
tp4958
assS'220802'
p4959
(dp4960
g157
(lp4961
(V\u94c1\u897f\u533a
p4962
L137200L
tp4963
assS'620402'
p4964
(dp4965
g157
(lp4966
(V109\u7ebf
p4967
L730600L
tp4968
assS'220605'
p4969
(dp4970
g11
(lp4971
(V\u677e\u6811\u9547
p4972
L130036L
tp4973
a(V\u781f\u5b50\u9547
p4974
L130036L
tp4975
a(V\u77f3\u4eba\u9547
p4976
L130036L
tp4977
a(V\u592a\u9633\u5c94\u9547
p4978
L130036L
tp4979
a(V\u5927\u77f3\u4eba\u9547
p4980
L130036L
tp4981
assS'230881'
p4982
(dp4983
g157
(lp4984
(V\u5176\u4ed6\u4e0d\u6d3e\u9001
p4985
L156500L
tp4986
assS'510105'
p4987
(dp4988
g157
(lp4989
(V\u6682\u505c
p4990
L610084L
tp4991
a(V\u6682\u505c
p4992
L610087L
tp4993
assS'410503'
p4994
(dp4995
g157
(lp4996
(V\u5b89\u94a2\u65b0\u666e
p4997
L455004L
tp4998
assS'220602'
p4999
(dp5000
g11
(lp5001
(V\u4e03\u9053\u7ea2\u9547
p5002
L130016L
tp5003
a(V\u516d\u9053\u7ea2\u9547
p5004
L130016L
tp5005
a(V\u7ea2\u571f\u5d16\u9547
p5006
L130016L
tp5007
a(V\u4e09\u9053\u6c9f\u9547
p5008
L130016L
tp5009
assS'510106'
p5010
(dp5011
g157
(lp5012
(V\u6682\u505c
p5013
L610111L
tp5014
assS'510108'
p5015
(dp5016
g157
(lp5017
(V\u6682\u505c
p5018
L610219L
tp5019
assS'331024'
p5020
(dp5021
g11
(lp5022
(V\u6731\u6eaa\u9547
p5023
L317300L
tp5024
assS'330304'
p5025
(dp5026
g157
(lp5027
(V\u6850\u5cad
p5028
L325005L
tp5029
a(V\u7126\u4e0b
p5030
L325005L
tp5031
a(V\u6cfd\u96c5
p5032
L325006L
tp5033
a(V\u6850\u5cad
p5034
L325006L
tp5035
assS'440811'
p5036
(dp5037
g157
(lp5038
(V\u5408\u6d41\u90e8\u961f
p5039
L524094L
tp5040
a(V\u5408\u6d41\u90e8\u961f
p5041
L524094L
tp5042
assS'330302'
p5043
(dp5044
g157
(lp5045
(V)
p5046
L325000L
tp5047
a(V\u4e0d\u6d3e\u9001
p5048
L325000L
tp5049
a(V\u6682\u505c
p5050
L325007L
tp5051
a(V\u5176\u4ed6\u4e0d\u9001
p5052
L325069L
tp5053
assS'360681'
p5054
(dp5055
g157
(lp5056
(V\u51b6\u70bc\u5382\u533a
p5057
L335400L
tp5058
assS'370181'
p5059
(dp5060
g11
(lp5061
(V\u8d22\u653f\u5b66\u9662
p5062
L250043L
tp5063
a(V\u53f8\u6cd5\u8b66\u5b98\u5b66\u9662
p5064
L250043L
tp5065
assS'530802'
p5066
(dp5067
g157
(lp5068
(V\u666e\u6d31\u5e02\u4e8c\u4e2d
p5069
L665001L
tp5070
a(V\u8f66\u8f86\u68c0\u6d4b\u7ad9
p5071
L665001L
tp5072
a(V\u58a8\u6c5f\u53bf
p5073
L665001L
tp5074
a(V\u666f\u8c37\u53bf
p5075
L665001L
tp5076
a(V\u6c5f\u57ce\u53bf
p5077
L665001L
tp5078
a(V\u6f9c\u6ca7\u53bf
p5079
L665001L
tp5080
a(V\u897f\u76df\u53bf
p5081
L665001L
tp5082
a(V\u4e0d\u53ef\u5230
p5083
L665001L
tp5084
assS'450481'
p5085
(dp5086
g157
(lp5087
(V\u6ce2\u5858
p5088
L543001L
tp5089
a(V\u53bf\u5bb9
p5090
L543001L
tp5091
assS'445122'
p5092
(dp5093
g157
(lp5094
(V\u90e8\u961f
p5095
L515700L
tp5096
assS'340702'
p5097
(dp5098
g157
(lp5099
(V\u90ca\u533a
p5100
L244000L
tp5101
assS'445121'
p5102
(dp5103
g11
(lp5104
(V\u6d6e\u6d0b\u9547
p5105
L521000L
tp5106
a(V\u6843\u674e\u9647\u6751
p5107
L521000L
tp5108
a(V\u4e95\u91cc\u6751
p5109
L521000L
tp5110
a(V\u4e50\u6865\u6751
p5111
L521000L
tp5112
assS'350902'
p5113
(dp5114
g157
(lp5115
(V\u5176\u5b83\u4e0d\u9001
p5116
L352102L
tp5117
assS'210124'
p5118
(dp5119
g157
(lp5120
(V\u5176\u5b83\u4e0d\u6d3e\u9001
p5121
L110401L
tp5122
assS'530702'
p5123
(dp5124
g157
(lp5125
(V\u7389\u9f99\u65b0\u53bf\u57ce
p5126
L674101L
tp5127
a(V\u6c38\u80dc\u53bf
p5128
L674101L
tp5129
a(V\u534e\u576a\u53bf
p5130
L674101L
tp5131
a(V\u5b81\u8497\u53bf
p5132
L674101L
tp5133
assS'310120'
p5134
(dp5135
g157
(lp5136
(V\u6682\u505c
p5137
L201440L
tp5138
a(V\u6682\u505c
p5139
L200290L
tp5140
assS'140823'
p5141
(dp5142
g157
(lp5143
(V\u5176\u5b83\u4e0d\u9001
p5144
L943800L
tp5145
a(V\u5176\u5b83\u4e0d\u9001
p5146
L943800L
tp5147
assS'140827'
p5148
(dp5149
g157
(lp5150
(V\u94dc\u77ff\u5cea
p5151
L943700L
tp5152
a(V\u80e1\u5bb6\u5cea
p5153
L943700L
tp5154
a(V\u84d6\u5b50\u6c9f
p5155
L943700L
tp5156
a(V\u524d\u6cb3
p5157
L943700L
tp5158
a(V\u4e2d\u51b6\u533a
p5159
L943700L
tp5160
a(V\u897f\u5cf0\u5c71
p5161
L943700L
tp5162
a(V\u70ed\u7535\u5382
p5163
L943700L
tp5164
assS'430502'
p5165
(dp5166
g157
(lp5167
(V\u5176\u5b83\u4e0d\u6d3e\u9001
p5168
L422600L
tp5169
assS'330783'
p5170
(dp5171
g11
(lp5172
(V\u4f50\u6751\u9547
p5173
L322100L
tp5174
a(V\u4f50\u6751\u9547
p5175
L322100L
tp5176
assS'610831'
p5177
(dp5178
g11
(lp5179
(V\u4f55\u5bb6\u96c6\u9547
p5180
L719009L
tp5181
a(V\u8001\u541b\u6bbf\u9547
p5182
L719009L
tp5183
assS'330781'
p5184
(dp5185
g11
(lp5186
(V\u67cf\u793e\u4e61
p5187
L321100L
tp5188
assS'430903'
p5189
(dp5190
g11
(lp5191
(V\u5170\u6eaa\u9547
p5192
L413000L
tp5193
a(V\u516b\u5b57\u54e8\u9547
p5194
L413000L
tp5195
a(V\u6cc9\u4ea4\u6cb3\u9547
p5196
L413000L
tp5197
a(V\u6b27\u6c5f\u5c94\u9547
p5198
L413000L
tp5199
a(V\u8861\u9f99\u6865\u9547
p5200
L413000L
tp5201
a(V\u5cb3\u5bb6\u6865\u9547
p5202
L413000L
tp5203
a(V\u6ce5\u6c5f\u53e3\u9547
p5204
L413000L
tp5205
a(V\u8c22\u6797\u6e2f\u9547
p5206
L413000L
tp5207
a(V\u65b0\u5e02\u6e21\u9547
p5208
L413000L
tp5209
a(V\u724c\u53e3\u4e61
p5210
L413000L
tp5211
assS'152921'
p5212
(dp5213
g157
(lp5214
(V\u4ee5\u897f
p5215
L914030L
tp5216
a(V\u963f\u62c9\u5584\u53f3\u65d7
p5217
L914030L
tp5218
a(V\u989d\u6d4e\u7eb3\u65d7
p5219
L914030L
tp5220
assS'440783'
p5221
(dp5222
g11
(lp5223
(V\u767d\u77f3\u5934\u5de5\u4e1a\u533a
p5224
L529301L
tp5225
a(V\u77f3\u5934\u5de5\u4e1a\u533a
p5226
L529301L
tp5227
a(V\u6708\u5c71\u5de5\u4e1a\u533a
p5228
L529301L
tp5229
a(V\u9e64\u5c71\u5e02\u7684\u5740\u5c71\u9547
p5230
L529301L
tp5231
assS'513424'
p5232
(dp5233
g11
(lp5234
(V\u4e50\u8dc3\u9547
p5235
L615001L
tp5236
a(V\u6c38\u90ce\u9547
p5237
L615001L
tp5238
a(V\u5927\u5c71\u4e61
p5239
L615001L
tp5240
a(V\u5927\u516d\u69fd\u4e61
p5241
L615001L
tp5242
a(V\u5927\u6e7e\u4e61
p5243
L615001L
tp5244
a(V\u5c0f\u9ad8\u4e61
p5245
L615001L
tp5246
a(V\u9a6c\u978d\u4e61
p5247
L615001L
tp5248
a(V\u738b\u6240\u4e61
p5249
L615001L
tp5250
a(V\u516d\u6240\u4e61
p5251
L615001L
tp5252
a(V\u5df4\u6d1e\u4e61
p5253
L615001L
tp5254
a(V\u8001\u78be\u4e61
p5255
L615001L
tp5256
a(V\u963f\u6708\u4e61
p5257
L615001L
tp5258
a(V\u91d1\u6c99\u5088\u50f3\u65cf\u4e61
p5259
L615001L
tp5260
a(V\u5357\u5c71\u5088\u50f3\u65cf\u4e61
p5261
L615001L
tp5262
a(V\u524d\u5c71\u4e61
p5263
L615001L
tp5264
a(V\u8328\u8fbe\u4e61
p5265
L615001L
tp5266
a(V\u70ed\u6cb3\u4e61
p5267
L615001L
tp5268
a(V\u94c1\u7089\u4e61
p5269
L615001L
tp5270
a(V\u5bbd\u88d5\u4e61
p5271
L615001L
tp5272
a(V\u94f6\u9e7f\u4e61
p5273
L615001L
tp5274
a(V\u9ebb\u6817\u4e61
p5275
L615001L
tp5276
a(V\u9526\u5ddd\u4e61
p5277
L615001L
tp5278
assS'410802'
p5279
(dp5280
g11
(lp5281
(V\u4e2d\u94dd\u5de5\u4e1a\u533a
p5282
L454000L
tp5283
assS'370983'
p5284
(dp5285
g157
(lp5286
(V\u738b\u74dc\u5e97
p5287
L271600L
tp5288
a(V\u7279\u94a2\u5382
p5289
L271600L
tp5290
a(V\u7535\u529b
p5291
L271600L
tp5292
a(V\u76d1\u72f1
p5293
L271600L
tp5294
assS'110109'
p5295
(dp5296
g157
(lp5297
(V\u5176\u5b83\u4e0d\u6d3e\u9001
p5298
L100373L
tp5299
a(V\u5176\u5b83\u4e0d\u6d3e\u9001
p5300
L100373L
tp5301
assS'110108'
p5302
(dp5303
g157
(lp5304
(V\u6682\u505c
p5305
L100172L
tp5306
a(V\u6682\u505c
p5307
L100244L
tp5308
assS'110105'
p5309
(dp5310
g157
(lp5311
(V\u6682\u505c
p5312
L100086L
tp5313
a(V\u6682\u505c
p5314
L100354L
tp5315
a(V\u6682\u505c
p5316
L100376L
tp5317
a(V\u65e0
p5318
L100404L
tp5319
a(V\u65e0
p5320
L100429L
tp5321
a(V\u65e0
p5322
L100404L
tp5323
a(V\u65e0
p5324
L100396L
tp5325
a(V\u65e0
p5326
L100429L
tp5327
a(V\u65e0
p5328
L100396L
tp5329
assS'320206'
p5330
(dp5331
g157
(lp5332
(V\u6682\u505c
p5333
L214122L
tp5334
assS'320205'
p5335
(dp5336
g157
(lp5337
(V\u6682\u505c
p5338
L214057L
tp5339
assS'110106'
p5340
(dp5341
g157
(lp5342
(V\u6682\u65e0
p5343
L100127L
tp5344
a(V\u65e0
p5345
L100356L
tp5346
a(V\u65e0
p5347
L100358L
tp5348
a(V\u6682\u505c
p5349
L100374L
tp5350
a(V\u6682\u505c
p5351
L100401L
tp5352
a(V\u6682\u65e0
p5353
L100127L
tp5354
a(V\u65e0
p5355
L100358L
tp5356
a(V\u65e0
p5357
L100356L
tp5358
assS'320201'
p5359
(dp5360
g157
(lp5361
(V\u6682\u505c
p5362
L214131L
tp5363
a(V\u6682\u505c
p5364
L214150L
tp5365
a(V\u6682\u505c
p5366
L214126L
tp5367
assS'110102'
p5368
(dp5369
g157
(lp5370
(V\u6682\u505c
p5371
L100215L
tp5372
assS'445302'
p5373
(dp5374
g157
(lp5375
(V\u897f\u6eaa\u5858
p5376
L527312L
tp5377
assS'530111'
p5378
(dp5379
g157
(lp5380
(V\u5176\u4ed6\u4e0d\u9001
p5381
L650024L
tp5382
a(V\u5176\u4ed6\u4e0d\u9001
p5383
L650019L
tp5384
assS'530112'
p5385
(dp5386
g157
(lp5387
(V\u5176\u4ed6\u4e0d\u6d3e\u9001
p5388
L650021L
tp5389
assS'330602'
p5390
(dp5391
g157
(lp5392
(V\u738b\u575b
p5393
L312000L
tp5394
a(V\u7a3d\u4e1c
p5395
L312000L
tp5396
a(V\u5bcc\u76db
p5397
L312000L
tp5398
assS'450922'
p5399
(dp5400
g11
(lp5401
(V\u5de5\u4e1a\u533a
p5402
L537700L
tp5403
a(V\u9646\u5ddd\u5317\u90e8\u5f00\u53d1\u533a
p5404
L537700L
tp5405
a(V\u7c73\u573a\u9547
p5406
L537700L
tp5407
a(V\u9a6c\u5761\u9547
p5408
L537700L
tp5409
a(V\u73ca\u7f57\u9547
p5410
L537700L
tp5411
a(V\u5e73\u4e50\u9547
p5412
L537700L
tp5413
a(V\u6c99\u5761\u9547
p5414
L537700L
tp5415
a(V\u5927\u6865\u9547
p5416
L537700L
tp5417
a(V\u4e4c\u77f3\u9547
p5418
L537700L
tp5419
a(V\u826f\u7530\u9547
p5420
L537700L
tp5421
a(V\u6e05\u6e56\u9547
p5422
L537700L
tp5423
a(V\u53e4\u57ce\u9547
p5424
L537700L
tp5425
a(V\u6c99\u6e56\u4e61
p5426
L537700L
tp5427
a(V\u6a2a\u5c71\u4e61
p5428
L537700L
tp5429
a(V\u6708\u578c\u4e61
p5430
L537700L
tp5431
a(V\u6ee9\u9762\u4e61
p5432
L537700L
tp5433
assS'450923'
p5434
(dp5435
g11
(lp5436
(V\u53cc\u51e4\u9547
p5437
L537600L
tp5438
a(V\u987f\u8c37\u9547
p5439
L537600L
tp5440
a(V\u6c34\u9e23\u9547
p5441
L537600L
tp5442
a(V\u90a3\u6797\u9547
p5443
L537600L
tp5444
a(V\u6c5f\u5b81\u9547
p5445
L537600L
tp5446
a(V\u4e09\u6ee9\u9547
p5447
L537600L
tp5448
a(V\u9ec4\u51cc\u9547
p5449
L537600L
tp5450
a(V\u4e9a\u5c71\u9547
p5451
L537600L
tp5452
a(V\u65fa\u8302\u9547
p5453
L537600L
tp5454
a(V\u4e1c\u5e73\u9547
p5455
L537600L
tp5456
a(V\u6c99\u6cb3\u9547
p5457
L537600L
tp5458
a(V\u83f1\u89d2\u9547
p5459
L537600L
tp5460
a(V\u65b0\u7530\u9547
p5461
L537600L
tp5462
a(V\u51e4\u5c71\u9547
p5463
L537600L
tp5464
a(V\u5b81\u6f6d\u9547
p5465
L537600L
tp5466
a(V\u6587\u5730\u9547
p5467
L537600L
tp5468
a(V\u82f1\u6865\u9547
p5469
L537600L
tp5470
a(V\u90a3\u535c\u9547
p5471
L537600L
tp5472
a(V\u5927\u578c\u9547
p5473
L537600L
tp5474
a(V\u6c99\u9642\u9547
p5475
L537600L
tp5476
a(V\u53cc\u65fa\u9547
p5477
L537600L
tp5478
a(V\u677e\u65fa\u9547
p5479
L537600L
tp5480
a(V\u9f99\u6f6d\u9547
p5481
L537600L
tp5482
a(V\u5927\u575d\u9547
p5483
L537600L
tp5484
a(V\u6c38\u5b89\u9547
p5485
L537600L
tp5486
a(V\u5f84\u53e3\u9547
p5487
L537600L
tp5488
a(V\u53cc\u51e4\u9547
p5489
L537600L
tp5490
a(V\u987f\u8c37\u9547
p5491
L537600L
tp5492
a(V\u6c34\u9e23\u9547
p5493
L537600L
tp5494
a(V\u90a3\u6797\u9547
p5495
L537600L
tp5496
a(V\u6c5f\u5b81\u9547
p5497
L537600L
tp5498
a(V\u4e09\u6ee9\u9547
p5499
L537600L
tp5500
a(V\u9ec4\u51cc\u9547
p5501
L537600L
tp5502
a(V\u4e9a\u5c71\u9547
p5503
L537600L
tp5504
a(V\u65fa\u8302\u9547
p5505
L537600L
tp5506
a(V\u4e1c\u5e73\u9547
p5507
L537600L
tp5508
a(V\u6c99\u6cb3\u9547
p5509
L537600L
tp5510
a(V\u83f1\u89d2\u9547
p5511
L537600L
tp5512
a(V\u65b0\u7530\u9547
p5513
L537600L
tp5514
a(V\u51e4\u5c71\u9547
p5515
L537600L
tp5516
a(V\u5b81\u6f6d\u9547
p5517
L537600L
tp5518
a(V\u6587\u5730\u9547
p5519
L537600L
tp5520
a(V\u82f1\u6865\u9547
p5521
L537600L
tp5522
a(V\u90a3\u535c\u9547
p5523
L537600L
tp5524
a(V\u5927\u578c\u9547
p5525
L537600L
tp5526
a(V\u6c99\u9642\u9547
p5527
L537600L
tp5528
a(V\u53cc\u65fa\u9547
p5529
L537600L
tp5530
a(V\u677e\u65fa\u9547
p5531
L537600L
tp5532
a(V\u9f99\u6f6d\u9547
p5533
L537600L
tp5534
a(V\u5927\u575d\u9547
p5535
L537600L
tp5536
a(V\u6c38\u5b89\u9547
p5537
L537600L
tp5538
a(V\u5f84\u53e3\u9547
p5539
L537600L
tp5540
assS'652301'
p5541
(dp5542
g157
(lp5543
(V\u547c\u56fe\u58c1\u53bf
p5544
L831100L
tp5545
a(V\u5409\u6728\u8428\u5c14\u53bf
p5546
L831100L
tp5547
assS'330802'
p5548
(dp5549
g11
(lp5550
(V\u8862\u6c5f\u533a\u5404\u4e61\u9547
p5551
L324000L
tp5552
a(V\u8862\u6c5f\u533a\u5404\u4e61\u9547
p5553
L324000L
tp5554
assS'610702'
p5555
(dp5556
g11
(lp5557
(V\u5b97\u8425\u9547
p5558
L723001L
tp5559
assS'220102'
p5560
(dp5561
g157
(lp5562
(V\u6682\u505c
p5563
L130048L
tp5564
a(V\u6682\u505c
p5565
L130050L
tp5566
a(V\u5176\u4ed6\u4e0d\u9001
p5567
L130079L
tp5568
a(V\u6682\u505c
p5569
L132027L
tp5570
assS'211202'
p5571
(dp5572
g11
(lp5573
(V\u5e73\u5c97\u9547
p5574
L112400L
tp5575
a(V\u90dc\u5bb6\u5e97\u9547
p5576
L112400L
tp5577
a(V\u51c9\u6cc9\u9547
p5578
L112400L
tp5579
a(V\u632f\u5174\u9547
p5580
L112400L
tp5581
a(V\u5b89\u6c11\u9547
p5582
L112400L
tp5583
a(V\u5929\u5fb7\u9547
p5584
L112400L
tp5585
a(V\u623f\u6728\u9547
p5586
L112400L
tp5587
a(V\u9676\u7136\u4e61
p5588
L112400L
tp5589
a(V\u67cf\u6986\u4e61
p5590
L112400L
tp5591
a(V\u5fb7\u5174\u6ee1\u65cf\u4e61
p5592
L112400L
tp5593
a(V\u9493\u9c7c\u4e61
p5594
L112400L
tp5595
a(V\u660e\u5fb7\u6ee1\u65cf\u4e61
p5596
L112400L
tp5597
a(V\u6210\u5e73\u6ee1\u65cf\u4e61
p5598
L112400L
tp5599
a(V\u548c\u9686\u6ee1\u65cf\u4e61
p5600
L112400L
tp5601
a(V\u8425\u5382\u6ee1\u65cf\u4e61
p5602
L112400L
tp5603
a(V\u91d1\u661f\u6ee1\u65cf\u4e61
p5604
L112400L
tp5605
assS'350403'
p5606
(dp5607
g157
(lp5608
(V\u4e61\u9547\u4e0d\u6d3e\u9001
p5609
L365000L
tp5610
a(V\u5efa\u5b81\u53bf
p5611
L365000L
tp5612
a(V\u6cf0\u5b81\u53bf
p5613
L365000L
tp5614
assS'220104'
p5615
(dp5616
g157
(lp5617
(V\u6682\u505c
p5618
L130085L
tp5619
a(V\u6682\u505c
p5620
L130086L
tp5621
assS'320113'
p5622
(dp5623
g157
(lp5624
(V\u5176\u4ed6\u4e0d\u9001
p5625
L210047L
tp5626
a(V\u5176\u5b83\u4e0d\u9001
p5627
L210033L
tp5628
assS'320115'
p5629
(dp5630
g157
(lp5631
(V\u7984\u53e3\u673a\u573a
p5632
L211100L
tp5633
a(V\u6682\u505c
p5634
L210151L
tp5635
assS'360881'
p5636
(dp5637
g157
(lp5638
(V\u7f57\u6d6e
p5639
L343604L
tp5640
assS'520102'
p5641
(dp5642
g11
(lp5643
(V\u6c38\u4e50\u4e61\u53ca\u5176\u4ed6\u4e61\u9547
p5644
L550066L
tp5645
a(V\u4e8c\u5821\u6751
p5646
L550066L
tp5647
assS'520103'
p5648
(dp5649
g157
(lp5650
(V\u6682\u505c
p5651
L550049L
tp5652
assS'330110'
p5653
(dp5654
g157
(lp5655
(V\u5176\u4ed6\u4e0d\u9001
p5656
L311802L
tp5657
assS'130983'
p5658
(dp5659
g11
(lp5660
(V\u4e34\u6e2f\u7ecf\u6d4e\u5f00\u53d1\u533a
p5661
L961001L
tp5662
assS'130982'
p5663
(dp5664
g11
(lp5665
(V\u77f3\u95e8\u6865\u9547
p5666
L962250L
tp5667
a(V\u51fa\u5cb8\u9547
p5668
L962250L
tp5669
a(V\u9752\u5854\u4e61
p5670
L962250L
tp5671
a(V\u5317\u8f9b\u5e84\u4e61
p5672
L962250L
tp5673
assS'130981'
p5674
(dp5675
g157
(lp5676
(V\u5176\u4ed6\u4e0d\u9001
p5677
L962150L
tp5678
a(V\u5176\u4ed6\u4e0d\u9001
p5679
L962150L
tp5680
a(V\u5176\u4ed6\u4e0d\u9001
p5681
L962150L
tp5682
assS'360702'
p5683
(dp5684
g157
(lp5685
(V\u706b\u8f66\u7ad9
p5686
L341600L
tp5687
assS'330283'
p5688
(dp5689
g11
(lp5690
(V\u9e3f\u5c7f\u6751
p5691
L315500L
tp5692
a(V\u5927\u5830\u9547
p5693
L315822L
tp5694
assS'640302'
p5695
(dp5696
g157
(lp5697
(V\u540c\u5fc3\u53bf
p5698
L750012L
tp5699
a(V\u76d0\u6c60\u53bf
p5700
L750012L
tp5701
a(V\u540c\u5fc3\u53bf
p5702
L750012L
tp5703
a(V\u76d0\u6c60\u53bf
p5704
L750012L
tp5705
assS'341502'
p5706
(dp5707
g11
(lp5708
(V\u4e0b\u7b26\u6865\u9547
p5709
L237200L
tp5710
a(V\u4f46\u5bb6\u5e99\u9547
p5711
L237200L
tp5712
a(V\u4e0e\u513f\u8857\u9547
p5713
L237200L
tp5714
a(V\u9ed1\u77f3\u6e21\u9547
p5715
L237200L
tp5716
a(V\u8bf8\u4f5b\u5eb5\u9547
p5717
L237200L
tp5718
a(V\u843d\u513f\u5cad\u9547
p5719
L237200L
tp5720
a(V\u78e8\u5b50\u6f6d\u9547
p5721
L237200L
tp5722
a(V\u5927\u5316\u576a\u9547
p5723
L237200L
tp5724
a(V\u6f2b\u6c34\u6cb3\u9547
p5725
L237200L
tp5726
a(V\u4e0a\u58eb\u5e02\u9547
p5727
L237200L
tp5728
a(V\u5355\u9f99\u5bfa\u4e61
p5729
L237200L
tp5730
a(V\u4e1c\u897f\u6eaa\u4e61
p5731
L237200L
tp5732
a(V\u592a\u5e73\u7548\u4e61
p5733
L237200L
tp5734
a(V\u592a\u9633\u4e61
p5735
L237200L
tp5736
assS'371402'
p5737
(dp5738
g11
(lp5739
(V\u7fdf\u5bb6\u4e61
p5740
L251500L
tp5741
a(V\u5174\u9686\u9547
p5742
L251500L
tp5743
a(V\u674e\u5bb6\u4e61
p5744
L251500L
tp5745
assS'610403'
p5746
(dp5747
g11
(lp5748
(V\u4e94\u6cc9\u9547
p5749
L712100L
tp5750
a(V\u5927\u5be8\u4e61
p5751
L712100L
tp5752
a(V\u6768\u6751\u4e61
p5753
L712100L
tp5754
assS'610402'
p5755
(dp5756
g157
(lp5757
(V\u6c38\u5bff\u53bf
p5758
L712000L
tp5759
a(V\u5f6c\u53bf
p5760
L712000L
tp5761
a(V\u65ec\u9091\u53bf
p5762
L712000L
tp5763
a(V\u957f\u6b66\u53bf
p5764
L712000L
tp5765
a(V\u5176\u4ed6\u4e0d\u9001
p5766
L712007L
tp5767
assS'130182'
p5768
(dp5769
g157
(lp5770
(V\u5316\u5de5\u65b0\u533a
p5771
L950016L
tp5772
a(V\u5316\u5de5\u65b0\u533a
p5773
L950016L
tp5774
assS'621102'
p5775
(dp5776
g157
(lp5777
(V\u6e2d\u6e90\u53bf
p5778
L743000L
tp5779
a(V\u6f33\u53bf
p5780
L743000L
tp5781
assS'120115'
p5782
(dp5783
g11
(lp5784
(V\u6797\u4ead\u53e3\u9547
p5785
L300147L
tp5786
a(V\u516b\u95e8\u57ce\u9547
p5787
L300147L
tp5788
a(V\u5927\u949f\u5e84\u9547
p5789
L300147L
tp5790
a(V\u5927\u5510\u5e84\u9547
p5791
L300147L
tp5792
a(V\u9ed1\u72fc\u53e3\u9547
p5793
L300147L
tp5794
a(V\u90dd\u5404\u5e84\u9547
p5795
L300147L
tp5796
assS'310114'
p5797
(dp5798
g157
(lp5799
(V\u5176\u4ed6\u4e0d\u9001
p5800
L201823L
tp5801
a(V\u5176\u4ed6\u4e0d\u9001
p5802
L201823L
tp5803
assS'120116'
p5804
(dp5805
g11
(lp5806
(V\u5317\u5858\u9547
p5807
L300032L
tp5808
assS'120111'
p5809
(dp5810
g11
(lp5811
(V\u6728\u5382\u4e61
p5812
L300064L
tp5813
a(V\u6728\u5382\u6751
p5814
L300064L
tp5815
a(V\u5c0f\u6c99\u6c83\u6751
p5816
L300064L
tp5817
a(V\u6c34\u9ad8\u5e84\u6751
p5818
L300064L
tp5819
a(V\u5c0f\u6c99\u6c83\u6751\u5de5\u4e1a\u56ed
p5820
L300064L
tp5821
a(V\u6c34\u9ad8\u5e84\u5de5\u4e1a\u56ed
p5822
L300064L
tp5823
assS'620982'
p5824
(dp5825
g157
(lp5826
(V\u5929\u7136\u6c14\u672b\u7ad9
p5827
L736200L
tp5828
a(V\u5357\u6e56
p5829
L736200L
tp5830
a(V\u98de\u673a\u573a
p5831
L736200L
tp5832
a(V\u706b\u8f66\u7ad9
p5833
L736200L
tp5834
a(V\u94c1\u5bb6\u5821
p5835
L736200L
tp5836
assS'420583'
p5837
(dp5838
g11
(lp5839
(V\u4e03\u661f\u53f0\u9547
p5840
L443200L
tp5841
a(V\u767d\u6d0b\u9547
p5842
L443200L
tp5843
a(V\u987e\u5bb6\u5e97\u9547
p5844
L443200L
tp5845
a(V\u4ed9\u5973\u9547
p5846
L443200L
tp5847
assS'120112'
p5848
(dp5849
g157
(lp5850
(V\u661f\u57ce\u6295\u8d44
p5851
L300193L
tp5852
assS'210283'
p5853
(dp5854
g11
(lp5855
(V\u82b1\u56ed\u53e3\u5de5\u4e1a\u533a
p5856
L116400L
tp5857
a(V\u5927\u8fde\u98de\u8fbe\u673a\u68b0\u6709\u9650\u516c\u53f8
p5858
L116400L
tp5859
assS'370602'
p5860
(dp5861
g11
(lp5862
(V\u5357\u4e0a\u5751\u6751
p5863
L264025L
tp5864
a(V\u5317\u4e0a\u5751\u6751
p5865
L264025L
tp5866
a(V\u5c71\u6c99\u57e0\u6751
p5867
L264025L
tp5868
assS'231005'
p5869
(dp5870
g157
(lp5871
(V\u4e0b\u57ce\u5b50
p5872
L157500L
tp5873
a(V\u9a6c\u6865\u6cb3
p5874
L157500L
tp5875
a(V\u5176\u5b83\u4e0d\u9001
p5876
L157041L
tp5877
a(V\u5176\u4ed6\u4e0d\u9001
p5878
L157003L
tp5879
assS'530427'
p5880
(dp5881
g157
(lp5882
(V\u5176\u5b83\u4e0d\u6d3e\u9001
p5883
L652800L
tp5884
assS'370801'
p5885
(dp5886
g157
(lp5887
(V\u6682\u505c
p5888
L273507L
tp5889
assS'450702'
p5890
(dp5891
g11
(lp5892
(V\u6cc9\u6c34\u9547
p5893
L535300L
tp5894
a(V\u77f3\u57c7\u9547
p5895
L535300L
tp5896
a(V\u5b89\u77f3\u9547
p5897
L535300L
tp5898
a(V\u5f20\u9ec4\u9547
p5899
L535300L
tp5900
a(V\u5927\u6210\u9547
p5901
L535300L
tp5902
a(V\u767d\u77f3\u6c34\u9547
p5903
L535300L
tp5904
a(V\u5317\u901a\u9547
p5905
L535300L
tp5906
a(V\u4e09\u5408\u9547
p5907
L535300L
tp5908
a(V\u9f99\u95e8\u9547
p5909
L535300L
tp5910
a(V\u6c5f\u57ce\u9547
p5911
L535300L
tp5912
a(V\u798f\u65fa\u9547
p5913
L535300L
tp5914
a(V\u5be8\u5729\u9547
p5915
L535300L
tp5916
a(V\u4e50\u6c11\u9547
p5917
L535300L
tp5918
a(V\u516d\u57a0\u9547
p5919
L535300L
tp5920
a(V\u5e73\u7766\u9547
p5921
L535300L
tp5922
a(V\u5b98\u578c\u9547
p5923
L535300L
tp5924
a(V\u6a1f\u5bb6\u4e61
p5925
L535300L
tp5926
assS'340822'
p5927
(dp5928
g11
(lp5929
(V\u6708\u5c71\u9547
p5930
L246002L
tp5931
a(V\u8336\u5cad\u9547
p5932
L246002L
tp5933
a(V\u51c9\u4ead\u4e61
p5934
L246002L
tp5935
a(V\u516c\u5cad\u9547
p5936
L246002L
tp5937
a(V\u9a6c\u5e99\u4e61
p5938
L246002L
tp5939
a(V\u77f3\u724c\u9547
p5940
L246002L
tp5941
a(V\u4e09\u6865\u9547
p5942
L246002L
tp5943
a(V\u6d2a\u9547
p5944
L246002L
tp5945
a(V\u77f3\u955c\u4e61
p5946
L246002L
tp5947
a(V\u9ec4\u58a9\u9547
p5948
L246002L
tp5949
a(V\u6e05\u548c\u4e61
p5950
L246002L
tp5951
a(V\u5c0f\u5e02\u9547
p5952
L246002L
tp5953
assS'511102'
p5954
(dp5955
g157
(lp5956
(V\u846b\u82a6\u575d
p5957
L614005L
tp5958
assS'371002'
p5959
(dp5960
g11
(lp5961
(V\u6865\u5934\u9547
p5962
L264200L
tp5963
a(V\u6cca\u4e8e\u5b50\u9547
p5964
L264200L
tp5965
a(V\u6c6a\u7583\u9547
p5966
L264200L
tp5967
a(V\u82d8\u5c71\u9547
p5968
L264200L
tp5969
a(V\u6843\u56ed\u8857\u9053\u529e\u4e8b\u5904(\u5de5\u4e1a\u56ed
p5970
L264309L
tp5971
a(V\u6865\u5934\u9547
p5972
L264200L
tp5973
a(V\u6cca\u4e8e\u5b50\u9547
p5974
L264200L
tp5975
a(V\u6c6a\u7583\u9547
p5976
L264200L
tp5977
a(V\u82d8\u5c71\u9547
p5978
L264200L
tp5979
assS'150702'
p5980
(dp5981
g157
(lp5982
(V\u4f0a\u654f
p5983
L921300L
tp5984
a(V\u62c9\u5e03\u8fbe\u6797
p5985
L921300L
tp5986
assS'150526'
p5987
(dp5988
g157
(lp5989
(V\u5317\u6cb3\u4ee5\u5317
p5990
L929100L
tp5991
a(V\u5317\u9ad8\u7089
p5992
L929100L
tp5993
a(V\u5317\u519c\u573a
p5994
L929100L
tp5995
a(V\u4e1c\u6865\u4ee5\u4e1c
p5996
L929100L
tp5997
assS'620523'
p5998
(dp5999
g11
(lp6000
(V\u767d\u5bb6\u6e7e\u4e61
p6001
L741002L
tp6002
assS'360921'
p6003
(dp6004
g11
(lp6005
(V\u8d64\u5cb8\u9547
p6006
L330700L
tp6007
a(V\u8d64\u7530\u9547
p6008
L330700L
tp6009
a(V\u5b8b\u57e0\u9547
p6010
L330700L
tp6011
a(V\u5e72\u6d32\u9547
p6012
L330700L
tp6013
a(V\u6fa1\u4e0b\u9547
p6014
L330700L
tp6015
a(V\u4f1a\u57e0\u9547
p6016
L330700L
tp6017
a(V\u7f57\u5e02\u9547
p6018
L330700L
tp6019
a(V\u4e0a\u5bcc\u9547
p6020
L330700L
tp6021
a(V\u7518\u574a\u9547
p6022
L330700L
tp6023
a(V\u4ef0\u5c71\u4e61
p6024
L330700L
tp6025
a(V\u6fa1\u6eaa\u4e61
p6026
L330700L
tp6027
a(V\u67f3\u6eaa\u4e61
p6028
L330700L
tp6029
assS'220421'
p6030
(dp6031
g11
(lp6032
(V\u6a2a\u9053\u6cb3\u9547
p6033
L130015L
tp6034
a(V\u90a3\u4e39\u4f2f\u9547
p6035
L130015L
tp6036
a(V\u7334\u77f3\u9547
p6037
L130015L
tp6038
a(V\u6768\u6728\u6797\u9547
p6039
L130015L
tp6040
a(V\u5c0f\u56db\u5e73\u9547
p6041
L130015L
tp6042
a(V\u9ec4\u6cb3\u9547
p6043
L130015L
tp6044
a(V\u62c9\u62c9\u6cb3\u9547
p6045
L130015L
tp6046
a(V\u6c99\u6cb3\u9547
p6047
L130015L
tp6048
a(V\u5357\u5c6f\u57fa\u9547
p6049
L130015L
tp6050
a(V\u5927\u5174\u9547
p6051
L130015L
tp6052
a(V\u4e09\u5408\u6ee1\u65cf\u671d\u9c9c\u65cf\u4e61
p6053
L130015L
tp6054
a(V\u4e8c\u9f99\u5c71\u4e61
p6055
L130015L
tp6056
a(V\u4ec1\u5408\u6751
p6057
L130015L
tp6058
assS'331122'
p6059
(dp6060
g11
(lp6061
(V\u9f0e\u9f99\u5c0f\u533a
p6062
L321401L
tp6063
a(V\u897f\u5bee\u5c0f\u533a
p6064
L321401L
tp6065
a(V\u8212\u6d2a\u9547
p6066
L321401L
tp6067
a(V\u5927\u6e90\u9547
p6068
L321401L
tp6069
a(V\u5927\u6d0b\u9547
p6070
L321401L
tp6071
a(V\u4e1c\u65b9\u9547
p6072
L321401L
tp6073
a(V\u6eb6\u6c5f\u4e61
p6074
L321401L
tp6075
a(V\u53cc\u6eaa\u53e3\u4e61
p6076
L321401L
tp6077
a(V\u80e1\u6e90\u4e61
p6078
L321401L
tp6079
a(V\u77f3\u7b15\u4e61
p6080
L321401L
tp6081
a(V\u4ed9\u90fd\u4e61
p6082
L321401L
tp6083
a(V\u4e1c\u65b9\u9547
p6084
L321400L
tp6085
a(V\u524d\u8def\u4e61
p6086
L321400L
tp6087
assS'341802'
p6088
(dp6089
g157
(lp6090
(V\u6ce8
p6091
L242000L
tp6092
assS'340828'
p6093
(dp6094
g11
(lp6095
(V\u6765\u699c\u9547
p6096
L246001L
tp6097
a(V\u767d\u5e3d\u9547
p6098
L246001L
tp6099
a(V\u5e97\u524d\u9547
p6100
L246001L
tp6101
a(V\u9752\u5929\u4e61
p6102
L246001L
tp6103
a(V\u5305\u5bb6\u4e61
p6104
L246001L
tp6105
a(V\u4e2d\u5173\u4e61
p6106
L246001L
tp6107
a(V\u4e94\u6cb3\u9547
p6108
L246001L
tp6109
a(V\u54cd\u80a0\u9547
p6110
L246001L
tp6111
a(V\u6bdb\u5c16\u5c71\u4e61
p6112
L246001L
tp6113
a(V\u6e29\u6cc9\u9547
p6114
L246001L
tp6115
a(V\u77f3\u5173\u4e61
p6116
L246001L
tp6117
a(V\u4e3b\u7c3f\u9547
p6118
L246001L
tp6119
a(V\u9ec4\u5c3e\u9547
p6120
L246001L
tp6121
a(V\u5934\u9640\u9547
p6122
L246001L
tp6123
assS'500119'
p6124
(dp6125
g11
(lp6126
(V\u767d\u679c\u575d\u5de5\u4e1a\u56ed\u533a
p6127
L408400L
tp6128
assS'500117'
p6129
(dp6130
g11
(lp6131
(V\u4e91\u95e8\u9547
p6132
L630007L
tp6133
a(V\u94b1\u5858\u9547
p6134
L630007L
tp6135
a(V\u6c99\u9c7c\u9547
p6136
L630007L
tp6137
a(V\u5b98\u6e21\u9547
p6138
L630007L
tp6139
a(V\u6d9e\u6ee9\u9547
p6140
L630007L
tp6141
a(V\u9f99\u5e02\u9547
p6142
L630007L
tp6143
a(V\u8096\u5bb6\u9547
p6144
L630007L
tp6145
a(V\u5927\u77f3\u9547
p6146
L630007L
tp6147
a(V\u53e4\u697c\u9547
p6148
L630007L
tp6149
a(V\u4e09\u5e99\u9547
p6150
L630007L
tp6151
a(V\u71d5\u7a9d\u9547
p6152
L630007L
tp6153
a(V\u4e8c\u90ce\u9547
p6154
L630007L
tp6155
a(V\u9f99\u51e4\u9547
p6156
L630007L
tp6157
a(V\u592a\u548c\u9547
p6158
L630007L
tp6159
a(V\u9686\u5174\u9547
p6160
L630007L
tp6161
a(V\u94dc\u6eaa\u9547
p6162
L630007L
tp6163
a(V\u6e2d\u6cb1\u9547
p6164
L630007L
tp6165
a(V\u76d0\u4e95\u9547
p6166
L630007L
tp6167
a(V\u8349\u8857\u9547
p6168
L630007L
tp6169
a(V\u53cc\u51e4\u9547
p6170
L630007L
tp6171
a(V\u72ee\u6ee9\u9547
p6172
L630007L
tp6173
a(V\u6e05\u5e73\u9547
p6174
L630007L
tp6175
a(V\u571f\u573a\u9547
p6176
L630007L
tp6177
a(V\u5c0f\u6c94\u9547
p6178
L630007L
tp6179
a(V\u4e09\u6c47\u9547
p6180
L630007L
tp6181
a(V\u9999\u9f99\u9547
p6182
L630007L
tp6183
assS'500116'
p6184
(dp6185
g157
(lp6186
(V501\u6cb9\u5e93
p6187
L630036L
tp6188
assS'500115'
p6189
(dp6190
g11
(lp6191
(V\u6f84\u6eaa\u9547
p6192
L400038L
tp6193
a(V\u592a\u5e73\u9547
p6194
L400038L
tp6195
a(V\u4e94\u6d1e\u9547
p6196
L400038L
tp6197
a(V\u9e64\u6e38\u9547
p6198
L400038L
tp6199
a(V\u576a\u5c71\u9547
p6200
L400038L
tp6201
a(V\u9ad8\u5cf0\u9547
p6202
L400038L
tp6203
a(V\u6760\u5bb6\u9547
p6204
L400038L
tp6205
a(V\u5468\u5bb6\u9547
p6206
L400038L
tp6207
a(V\u666e\u987a\u9547
p6208
L400038L
tp6209
a(V\u6c99\u576a\u9547
p6210
L400038L
tp6211
a(V\u65b0\u660e\u9547
p6212
L400038L
tp6213
a(V\u9ad8\u5b89\u9547
p6214
L400038L
tp6215
a(V\u6c38\u5b89\u9547
p6216
L400038L
tp6217
assS'652901'
p6218
(dp6219
g157
(lp6220
(V\u62dc\u57ce\u53bf
p6221
L843000L
tp6222
a(V\u65b0\u548c\u53bf
p6223
L843000L
tp6224
a(V\u6e29\u5bbf\u53bf
p6225
L843000L
tp6226
a(V\u4e4c\u4ec0\u53bf
p6227
L843000L
tp6228
a(V\u67ef\u576a\u53bf
p6229
L843000L
tp6230
assS'500112'
p6231
(dp6232
g157
(lp6233
(V\u798f\u6ee1\u591a
p6234
L401529L
tp6235
a(V\u4e2d\u8239\u91cd\u5de5
p6236
L401529L
tp6237
a(V\u5176\u4ed6\u4e0d\u9001
p6238
L400801L
tp6239
assS'500111'
p6240
(dp6241
g157
(lp6242
(V\u9f99\u6c34\u6e56\u666f\u533a
p6243
L400036L
tp6244
a(V\u519c\u573a
p6245
L402368L
tp6246
a(V\u897f\u6e56\u666f\u533a
p6247
L402368L
tp6248
assS'500110'
p6249
(dp6250
g11
(lp6251
(V\u7da6\u6c5f\u7b2c\u4e8c\u4eba\u6c11\u533b\u9662
p6252
L401420L
tp6253
a(V\u77f3\u89d2\u9547
p6254
L401420L
tp6255
a(V\u4e1c\u6eaa\u9547
p6256
L401420L
tp6257
a(V\u6c38\u65b0\u9547
p6258
L401420L
tp6259
a(V\u8d76\u6c34\u9547
p6260
L401420L
tp6261
a(V\u77f3\u58d5\u9547
p6262
L401420L
tp6263
a(V\u4e09\u89d2\u9547
p6264
L401420L
tp6265
a(V\u9686\u76db\u9547
p6266
L401420L
tp6267
a(V\u90ed\u6276\u9547
p6268
L401420L
tp6269
a(V\u7bc6\u5858\u9547
p6270
L401420L
tp6271
a(V\u4e01\u5c71\u9547
p6272
L401420L
tp6273
a(V\u5b89\u7a33\u9547
p6274
L401420L
tp6275
a(V\u6276\u6b22\u9547
p6276
L401420L
tp6277
a(V\u6c38\u57ce\u9547
p6278
L401420L
tp6279
a(V\u65b0\u76db\u9547
p6280
L401420L
tp6281
a(V\u4e2d\u5cf0\u9547
p6282
L401420L
tp6283
assS'652701'
p6284
(dp6285
g157
(lp6286
(V\u963f\u62c9\u5c71\u53e3
p6287
L833400L
tp6288
a(V\u6e29\u6cc9\u53bf
p6289
L833400L
tp6290
assS'440402'
p6291
(dp6292
g157
(lp6293
(V\u5176\u4ed6\u4e0d\u9001
p6294
L519013L
tp6295
a(V\u5176\u4ed6\u4e0d\u9001
p6296
L519013L
tp6297
a(V\u5176\u5b83\u4e0d\u6d3e\u9001
p6298
L519009L
tp6299
a(V\u5176\u5b83\u4e0d\u6d3e\u9001
p6300
L519009L
tp6301
a(V\u5176\u4ed6\u4e0d\u9001
p6302
L519013L
tp6303
a(V\u5176\u5b83\u4e0d\u6d3e\u9001
p6304
L519009L
tp6305
a(V\u5176\u4ed6\u4e0d\u9001
p6306
L519013L
tp6307
a(V\u5176\u5b83\u4e0d\u6d3e\u9001
p6308
L519009L
tp6309
assS'420902'
p6310
(dp6311
g157
(lp6312
(V\u5927\u609f\u53bf
p6313
L432100L
tp6314
assS'610302'
p6315
(dp6316
g157
(lp6317
(V\u53ca\u5176\u5b83\u4e0d\u9001
p6318
L722300L
tp6319
a(V\u5176\u4ed6\u4e0d\u6d3e\u9001
p6320
L721003L
tp6321
a(V\u65e0
p6322
L721006L
tp6323
assS'440404'
p6324
(dp6325
g157
(lp6326
(V\u524d\u4e1c
p6327
L519069L
tp6328
assS'341302'
p6329
(dp6330
g11
(lp6331
(V\u891a\u5170\u9547
p6332
L234000L
tp6333
a(V\u66f9\u6751\u9547
p6334
L234000L
tp6335
a(V\u5939\u6c9f\u9547
p6336
L234000L
tp6337
a(V\u680f\u6746\u9547
p6338
L234000L
tp6339
a(V\u65f6\u6751\u9547
p6340
L234000L
tp6341
a(V\u6c38\u5b89\u9547
p6342
L234000L
tp6343
a(V\u7070\u53e4\u9547
p6344
L234000L
tp6345
a(V\u5927\u5e97\u9547
p6346
L234000L
tp6347
a(V\u897f\u5bfa\u5761\u9547
p6348
L234000L
tp6349
a(V\u5927\u8425\u9547
p6350
L234000L
tp6351
a(V\u6768\u5e84\u4e61
p6352
L234000L
tp6353
a(V\u652f\u6cb3\u4e61
p6354
L234000L
tp6355
a(V\u89e3\u96c6\u4e61
p6356
L234000L
tp6357
a(V\u6843\u6c9f\u4e61
p6358
L234000L
tp6359
a(V\u987a\u6cb3\u4e61
p6360
L234000L
tp6361
a(V\u84bf\u6c9f\u4e61
p6362
L234000L
tp6363
a(V\u82d7\u5eb5\u4e61
p6364
L234000L
tp6365
a(V\u6c38\u9547\u4e61
p6366
L234000L
tp6367
assS'411303'
p6368
(dp6369
g11
(lp6370
(V\u8881\u5e84
p6371
L473002L
tp6372
assS'430302'
p6373
(dp6374
g157
(lp6375
(V\u94c1\u6865\u4e0d\u6d3e\u9001
p6376
L411110L
tp6377
assS'370705'
p6378
(dp6379
g157
(lp6380
(V\u6682\u505c
p6381
L261041L
tp6382
a(V\u6682\u505c
p6383
L261004L
tp6384
a(V\u5b9d\u901a\u8857\u4ee5\u5357
p6385
L261046L
tp6386
assS'320124'
p6387
(dp6388
g11
(lp6389
(V\u859b\u57ce\u9547
p6390
L210049L
tp6391
assS'360102'
p6392
(dp6393
g157
(lp6394
(V\u4e50\u5316
p6395
L330006L
tp6396
a(V\u660c\u5317\u673a\u573a
p6397
L330006L
tp6398
a(V\u5176\u4ed6\u4e0d\u6d3e\u9001
p6399
L330046L
tp6400
assS'451002'
p6401
(dp6402
g157
(lp6403
(V\u7535\u5316\u5382
p6404
L531400L
tp6405
a(V\u5176\u5b83\u4e0d\u9001
p6406
L531405L
tp6407
a(V\u5176\u5b83\u4e0d\u9001
p6408
L531406L
tp6409
assS'330727'
p6410
(dp6411
g11
(lp6412
(V\u7fe1\u7fe0\u6e56\u5927\u9152\u5e97
p6413
L322300L
tp6414
a(V\u6df1\u6cfd\u4e61
p6415
L322300L
tp6416
a(V\u5c16\u5c71\u9547
p6417
L322300L
tp6418
assS'230108'
p6419
(dp6420
g11
(lp6421
(V\u65b0\u534e\u5de5\u4e1a\u56ed
p6422
L150126L
tp6423
assS'411422'
p6424
(dp6425
g11
(lp6426
(V\u57ce\u90ca\u4e61
p6427
L476900L
tp6428
a(V\u5e1d\u4e18\u4e61
p6429
L476900L
tp6430
a(V\u5c24\u5409\u5c6f\u4e61
p6431
L476900L
tp6432
a(V\u8463\u5e97\u4e61
p6433
L476900L
tp6434
a(V\u6da7\u5c97\u4e61
p6435
L476900L
tp6436
a(V\u84fc\u5824\u9547
p6437
L476900L
tp6438
a(V\u897f\u9675\u5bfa\u9547
p6439
L476900L
tp6440
a(V\u5321\u57ce\u4e61
p6441
L476900L
tp6442
a(V\u8303\u6d3c\u4e61
p6443
L476900L
tp6444
a(V\u957f\u5c97\u9547
p6445
L476900L
tp6446
a(V\u5e73\u5c97\u9547
p6447
L476900L
tp6448
a(V\u6cb3\u5824\u4e61
p6449
L476900L
tp6450
a(V\u540e\u53f0\u4e61
p6451
L476900L
tp6452
a(V\u767d\u5e99\u4e61
p6453
L476900L
tp6454
a(V\u767d\u697c\u4e61
p6455
L476900L
tp6456
a(V\u80e1\u5802\u4e61
p6457
L476900L
tp6458
a(V\u5468\u5802\u9547
p6459
L476900L
tp6460
a(V\u6986\u53a2\u4e61
p6461
L476900L
tp6462
a(V\u5c1a\u5c6f\u4e61
p6463
L476900L
tp6464
a(V\u5b59\u805a\u5be8\u4e61
p6465
L476900L
tp6466
assS'210602'
p6467
(dp6468
g157
(lp6469
(V\u5927\u4e1c\u6e2f\u6e2f\u533a
p6470
L118300L
tp6471
assS'411421'
p6472
(dp6473
g157
(lp6474
(V\u5362\u5e84\u4e0d\u6d3e\u9001
p6475
L476800L
tp6476
assS'532501'
p6477
(dp6478
g11
(lp6479
(V\u9e21\u8857\u9547
p6480
L650008L
tp6481
assS'230103'
p6482
(dp6483
g157
(lp6484
(V\u6682\u505c
p6485
L150078L
tp6486
assS'140402'
p6487
(dp6488
g157
(lp6489
(V\u5176\u5b83\u4e0d\u6d3e\u9001
p6490
L947500L
tp6491
assS'320401'
p6492
(dp6493
g157
(lp6494
(V\u6682\u505c
p6495
L213901L
tp6496
assS'320404'
p6497
(dp6498
g157
(lp6499
(V\u6682\u505c
p6500
L213069L
tp6501
assS'440704'
p6502
(dp6503
g157
(lp6504
(V\u4e2d\u4e1c\u4e0d\u9001
p6505
L529002L
tp6506
a(V\u4e2d\u4e1c\u4e0d\u9001
p6507
L529002L
tp6508
assS'610902'
p6509
(dp6510
g11
(lp6511
(V\u5176\u5b83\u4e61\u9547
p6512
L725700L
tp6513
a(V\u67cf\u67f3\u9547
p6514
L725700L
tp6515
a(V\u7518\u6eaa\u9547
p6516
L725700L
tp6517
a(V\u8d75\u6e7e\u9547
p6518
L725700L
tp6519
a(V\u5c0f\u6cb3\u9547
p6520
L725700L
tp6521
a(V\u9ebb\u576a\u9547
p6522
L725700L
tp6523
a(V\u6850\u6728\u4e61
p6524
L725700L
tp6525
a(V\u516c\u9986\u4e61
p6526
L725700L
tp6527
a(V\u5415\u6cb3\u9547
p6528
L725700L
tp6529
a(V\u795e\u6cb3\u9547
p6530
L725700L
tp6531
a(V\u8d64\u5ca9\u9547
p6532
L725700L
tp6533
a(V\u77f3\u95e8\u4e61
p6534
L725700L
tp6535
a(V\u6bb5\u5bb6\u6cb3\u4e61
p6536
L725700L
tp6537
a(V\u68d5\u6eaa\u9547
p6538
L725700L
tp6539
a(V\u6784\u5143\u4e61
p6540
L725700L
tp6541
a(V\u5c5e\u6cb3\u9547
p6542
L725700L
tp6543
a(V\u53cc\u6cb3\u9547
p6544
L725700L
tp6545
a(V\u7ea2\u519b\u4e61
p6546
L725700L
tp6547
a(V\u4ed9\u6cb3\u4e61
p6548
L725700L
tp6549
assS'510101'
p6550
(dp6551
g157
(lp6552
(V\u5173\u505c
p6553
L610101L
tp6554
a(V\u5173\u505c
p6555
L610109L
tp6556
assS'411602'
p6557
(dp6558
g157
(lp6559
(V\u5176\u5b83\u4e0d\u9001
p6560
L466000L
tp6561
a(V\u5176\u5b83\u4e0d\u9001
p6562
L466300L
tp6563
assS'510504'
p6564
(dp6565
g11
(lp6566
(V\u80e1\u5e02\u9547
p6567
L646006L
tp6568
a(V\u7279\u5174\u9547
p6569
L646006L
tp6570
a(V\u53cc\u52a0\u9547
p6571
L646006L
tp6572
a(V\u91d1\u9f99\u4e61
p6573
L646006L
tp6574
assS'511702'
p6575
(dp6576
g11
(lp6577
(V\u5de5\u4e1a\u533a
p6578
L635200L
tp6579
assS'370202'
p6580
(dp6581
g157
(lp6582
(V\u5176\u5b83\u4e0d\u9001
p6583
L266023L
tp6584
assS'370203'
p6585
(dp6586
g157
(lp6587
(V\u6682\u505c
p6588
L266539L
tp6589
a(V\u6682\u505c
p6590
L266083L
tp6591
assS'620981'
p6592
(dp6593
g11
(lp6594
(V\u8d64\u91d1\u9547
p6595
L735002L
tp6596
a(V\u82b1\u6d77\u9547
p6597
L735002L
tp6598
a(V\u4e0b\u897f\u53f7\u4e61
p6599
L735002L
tp6600
a(V\u9ec4\u95f8\u6e7e\u4e61
p6601
L735002L
tp6602
a(V\u67f3\u6cb3\u4e61
p6603
L735002L
tp6604
a(V\u660c\u9a6c\u4e61
p6605
L735002L
tp6606
a(V\u6e05\u6cc9\u4e61
p6607
L735002L
tp6608
a(V\u5c0f\u91d1\u6e7e\u4e1c\u4e61\u65cf\u4e61
p6609
L735002L
tp6610
a(V\u72ec\u5c71\u5b50\u4e1c\u4e61\u65cf\u4e61
p6611
L735002L
tp6612
a(V\u67f3\u6e56\u4e61
p6613
L735002L
tp6614
a(V\u516d\u58a9\u4e61
p6615
L735002L
tp6616
assS'231182'
p6617
(dp6618
g157
(lp6619
(V\u5f15\u9f99\u6cb3\u519c\u573a
p6620
L164102L
tp6621
a(V\u8944\u6cb3\u519c\u573a
p6622
L164102L
tp6623
a(V\u5404\u6797\u573a
p6624
L164102L
tp6625
a(V\u5404\u5206\u573a
p6626
L164102L
tp6627
a(V\u90e8\u961f\u4e0d\u6d3e\u9001
p6628
L164102L
tp6629
assS'450305'
p6630
(dp6631
g11
(lp6632
(V\u6eb6\u6c5f\u9547
p6633
L541300L
tp6634
a(V\u754c\u9996\u9547
p6635
L541300L
tp6636
a(V\u9ad8\u5c1a\u9547
p6637
L541300L
tp6638
a(V\u4e25\u5173\u9547
p6639
L541300L
tp6640
a(V\u534e\u6c5f\u4e61
p6641
L541300L
tp6642
assS'210302'
p6643
(dp6644
g157
(lp6645
(V\u5176\u5b83\u4e0d\u6d3e\u9001
p6646
L114021L
tp6647
a(V1-
p6648
L770280L
tp6649
assS'441284'
p6650
(dp6651
g157
(lp6652
(V\u90e8\u961f
p6653
L526200L
tp6654
assS'150824'
p6655
(dp6656
g11
(lp6657
(V\u77f3\u5170\u8ba1\u4e61
p6658
L915003L
tp6659
a(V\u5b8f\u4e30\u4e61
p6660
L915003L
tp6661
a(V\u4e4c\u6881\u7d20\u592a\u4e61
p6662
L915003L
tp6663
a(V\u5fb7\u5cad\u5c71\u4e61
p6664
L915003L
tp6665
a(V\u695a\u9c81\u56fe\u4e61
p6666
L915003L
tp6667
a(V\u77f3\u54c8\u6cb3\u4e61
p6668
L915003L
tp6669
a(V\u90dc\u5317\u4e61
p6670
L915003L
tp6671
a(V\u53cc\u76db\u7f8e\u4e61
p6672
L915003L
tp6673
assS'210304'
p6674
(dp6675
g11
(lp6676
(V\u7f8a\u8349\u5e84
p6677
L114006L
tp6678
assS'420303'
p6679
(dp6680
g11
(lp6681
(V\u5747\u53bf\u9547
p6682
L442001L
tp6683
a(V\u5b98\u5c71\u9547
p6684
L442001L
tp6685
a(V\u4e01\u5bb6\u8425\u9547
p6686
L442001L
tp6687
a(V\u6d6a\u6cb3\u9547
p6688
L442001L
tp6689
a(V\u76d0\u6c60\u6cb3\u9547
p6690
L442001L
tp6691
a(V\u571f\u5173\u57ad\u9547
p6692
L442001L
tp6693
a(V\u4e60\u5bb6\u5e97\u9547
p6694
L442001L
tp6695
a(V\u84bf\u576a\u9547
p6696
L442001L
tp6697
a(V\u77f3\u9f13\u9547
p6698
L442001L
tp6699
a(V\u51c9\u6c34\u6cb3\u9547
p6700
L442001L
tp6701
assS'659001'
p6702
(dp6703
g157
(lp6704
(V\u5176\u5b83\u4e0d\u9001
p6705
L832000L
tp6706
assS'230206'
p6707
(dp6708
g157
(lp6709
(V\u4e8c\u7535\u5382
p6710
L161042L
tp6711
a(V\u65b0\u533a
p6712
L161042L
tp6713
a(V\u4e8c\u7535\u5382
p6714
L161042L
tp6715
a(V\u65b0\u533a
p6716
L161042L
tp6717
assS'532801'
p6718
(dp6719
g157
(lp6720
(V\u66fc\u5f04\u67ab
p6721
L650009L
tp6722
assS'150823'
p6723
(dp6724
g157
(lp6725
(V\u56db\u8fde
p6726
L914400L
tp6727
a(V\u4e94\u8fde
p6728
L914400L
tp6729
a(V\u7816\u74e6\u5382
p6730
L914400L
tp6731
a(V\u56fd\u9053\u5317
p6732
L914400L
tp6733
assS'441721'
p6734
(dp6735
g157
(lp6736
(V\u84b2\u724c\u7ba1\u7406\u533a
p6737
L529800L
tp6738
a(V\u6cb3\u5317\u7ba1\u7406\u533a
p6739
L529800L
tp6740
a(V\u5176\u4ed6\u4e61\u7ec4
p6741
L529800L
tp6742
a(V\u6751\u5e84\u4e0d\u5230
p6743
L529800L
tp6744
assS'441723'
p6745
(dp6746
g11
(lp6747
(V\u5927\u6c9f\u9547
p6748
L529510L
tp6749
a(V\u96c5\u97f6\u9547
p6750
L529510L
tp6751
assS'130303'
p6752
(dp6753
g157
(lp6754
(V\u98de\u673a\u573a
p6755
L966200L
tp6756
assS'130302'
p6757
(dp6758
g11
(lp6759
(V\u6d77\u6e2f\u9547
p6760
L966000L
tp6761
a(V\u897f\u6e2f\u9547
p6762
L966000L
tp6763
a(V\u6d77\u9633\u9547
p6764
L966000L
tp6765
a(V\u5317\u6e2f\u9547
p6766
L966000L
tp6767
a(V\u4ee5\u53ca\u5317\u90e8\u5de5\u4e1a\u533a
p6768
L966000L
tp6769
assS'370687'
p6770
(dp6771
g11
(lp6772
(V\u7559\u683c\u5e97\u9547
p6773
L265100L
tp6774
a(V\u76d8\u77f3\u5e97\u9547
p6775
L265100L
tp6776
a(V\u90ed\u57ce\u9547
p6777
L265100L
tp6778
a(V\u5f90\u5bb6\u5e97\u9547
p6779
L265100L
tp6780
a(V\u53d1\u57ce\u9547
p6781
L265100L
tp6782
a(V\u5c0f\u7eaa\u9547
p6783
L265100L
tp6784
a(V\u884c\u6751\u9547
p6785
L265100L
tp6786
a(V\u8f9b\u5b89\u9547
p6787
L265100L
tp6788
a(V\u4e8c\u5341\u91cc\u5e97\u9547
p6789
L265100L
tp6790
a(V\u5927\u95eb\u5bb6\u9547
p6791
L265100L
tp6792
assS'371329'
p6793
(dp6794
g11
(lp6795
(V\u86df\u9f99\u9547
p6796
L276700L
tp6797
a(V\u5e97\u5934\u9547
p6798
L276700L
tp6799
a(V\u77f3\u95e8\u9547
p6800
L276700L
tp6801
a(V\u524d\u5e84\u9547
p6802
L276700L
tp6803
a(V\u5927\u5174\u9547
p6804
L276700L
tp6805
a(V\u66f9\u5e84\u9547
p6806
L276700L
tp6807
a(V\u53e4\u9f99\u5c97\u4e61
p6808
L276700L
tp6809
a(V\u6731\u4ed3\u4e61
p6810
L276700L
tp6811
a(V\u86df\u9f99\u9547
p6812
L276700L
tp6813
a(V\u5e97\u5934\u9547
p6814
L276700L
tp6815
a(V\u77f3\u95e8\u9547
p6816
L276700L
tp6817
a(V\u524d\u5e84\u9547
p6818
L276700L
tp6819
a(V\u5927\u5174\u9547
p6820
L276700L
tp6821
a(V\u66f9\u5e84\u9547
p6822
L276700L
tp6823
a(V\u53e4\u9f99\u5c97\u4e61
p6824
L276700L
tp6825
a(V\u6731\u4ed3\u4e61
p6826
L276700L
tp6827
assS'430481'
p6828
(dp6829
g157
(lp6830
(V\u90e8\u961f
p6831
L421800L
tp6832
assS'211021'
p6833
(dp6834
g157
(lp6835
(V\u5218\u4e8c\u5821
p6836
L111004L
tp6837
a(V\u79be\uff1f\u5bb6
p6838
L111004L
tp6839
a(V\u5510\u5bb6\u5be8
p6840
L111004L
tp6841
a(V\u67f3\u58d5
p6842
L111004L
tp6843
a(V\u9ec4\u6ce5\u6d3c
p6844
L111004L
tp6845
a(V\u5c0f\u5317\u6cb3
p6846
L111004L
tp6847
a(V\u6c99\u5cad
p6848
L111004L
tp6849
assS'370681'
p6850
(dp6851
g11
(lp6852
(V\u5404\u9547
p6853
L265700L
tp6854
assS'371323'
p6855
(dp6856
g157
(lp6857
(V\u4e1c\u4e00\u73af\u4ee5\u4e1c
p6858
L276400L
tp6859
a(V\u946b\u534e\u8def\u4ee5\u5357
p6860
L276400L
tp6861
a(V\u5317\u4e8c\u73af\u4ee5\u5317
p6862
L276400L
tp6863
assS'430521'
p6864
(dp6865
g157
(lp6866
(V\u5176\u5b83\u4e0d\u5230
p6867
L422002L
tp6868
a(V\u6682\u505c
p6869
L422006L
tp6870
assS'140105'
p6871
(dp6872
g157
(lp6873
(V\u5176\u4ed6\u4e0d\u9001
p6874
L930063L
tp6875
a(V\u6682\u505c
p6876
L930070L
tp6877
a(V\u6682\u505c
p6878
L930075L
tp6879
a(V\u5176\u4ed6\u4e0d\u9001
p6880
L930076L
tp6881
assS'150203'
p6882
(dp6883
g11
(lp6884
(V\u9e7f\u7545\u8fbe\u94a2\u6750\u5e02\u573a
p6885
L914022L
tp6886
assS'150207'
p6887
(dp6888
S'all'
p6889
(lp6890
(g6889
L914025L
tp6891
assS'321202'
p6892
(dp6893
g11
(lp6894
(V\u767d\u9a6c\u9547
p6895
L225321L
tp6896
a(V\u91ce\u5f90\u9547
p6897
L225321L
tp6898
a(V\u5b54\u6865\u9547
p6899
L225321L
tp6900
a(V\u80e1\u5e84\u9547
p6901
L225321L
tp6902
assS'210411'
p6903
(dp6904
g157
(lp6905
(V\u9f9a\u5bb6\u6c9f
p6906
L113010L
tp6907
a(V\u65bd\u5bb6\u6c9f
p6908
L113010L
tp6909
assS'510104'
p6910
(dp6911
g157
(lp6912
(V\u6682\u505c
p6913
L611539L
tp6914
a(V\u6682\u505c
p6915
L610028L
tp6916
assS'331003'
p6917
(dp6918
g11
(lp6919
(V\u8305\u7572\u4e61
p6920
L318020L
tp6921
a(V\u4e0a\u90d1\u4e61
p6922
L318020L
tp6923
a(V\u5bcc\u5c71\u4e61
p6924
L318020L
tp6925
a(V\u4e0a\u6d0b\u4e61
p6926
L318020L
tp6927
assS'331002'
p6928
(dp6929
g157
(lp6930
(V\u9001
p6931
L318000L
tp6932
a(V\u5176\u5b83\u4e0d\u9001
p6933
L318002L
tp6934
assS'510107'
p6935
(dp6936
g157
(lp6937
(V\u5176\u4ed6\u4e0d\u9001
p6938
L610118L
tp6939
a(V\u5176\u4ed6\u4e0d\u9001
p6940
L610115L
tp6941
a(V\u5176\u4ed6\u4e0d\u9001
p6942
L611106L
tp6943
assS'530322'
p6944
(dp6945
g157
(lp6946
(V\u4e09\u5c94\u6cb3
p6947
L655600L
tp6948
a(V\u534e\u4fa8\u519c\u573a
p6949
L655600L
tp6950
a(V\u82b3\u534e
p6951
L655600L
tp6952
a(V\u53cc\u7b90\u53e3
p6953
L655600L
tp6954
a(V\u6d3b\u6c34
p6955
L655600L
tp6956
a(V\u677f\u6865
p6957
L655600L
tp6958
a(V\u6c38\u6e05\u6cb3
p6959
L655600L
tp6960
a(V\u71c3\u6599\u5382
p6961
L655600L
tp6962
a(V\u5305\u88c5\u5382
p6963
L655600L
tp6964
a(V603\u4fe1\u7bb1
p6965
L655600L
tp6966
assS'220502'
p6967
(dp6968
g157
(lp6969
(V\u5176\u5b83\u4e0d\u9001
p6970
L134006L
tp6971
assS'530325'
p6972
(dp6973
g157
(lp6974
(V\u5c71\u90a3\u8fb9
p6975
L650503L
tp6976
a(V\u6bb5\u5bb6\u5730
p6977
L650503L
tp6978
a(V\u4ee3\u5bb6\u51b2
p6979
L650503L
tp6980
a(V\u80cc\u9634\u5e86
p6981
L650503L
tp6982
a(V\u7ea2\u5ca9\u4e08
p6983
L650503L
tp6984
a(V\u5c0f\u5c71\u4e0a
p6985
L650503L
tp6986
a(V\u6f6d\u57fa\u6c9f
p6987
L650503L
tp6988
a(V\u5c0f\u51b2
p6989
L650503L
tp6990
a(V\u6cb3\u5bf9\u95e8
p6991
L650503L
tp6992
a(V\u9f99\u6d77
p6993
L650503L
tp6994
a(V\u90ca\u533a
p6995
L650503L
tp6996
assS'130601'
p6997
(dp6998
g157
(lp6999
(V\u6682\u505c
p7000
L974008L
tp7001
assS'360281'
p7002
(dp7003
g11
(lp7004
(V\u9547\u6865\u9547
p7005
L333003L
tp7006
a(V\u4e50\u6e2f\u9547
p7007
L333003L
tp7008
a(V\u6d8c\u5c71\u9547
p7009
L333003L
tp7010
a(V\u4f17\u57e0\u9547
p7011
L333003L
tp7012
a(V\u63a5\u6e21\u9547
p7013
L333003L
tp7014
a(V\u6d2a\u5ca9\u9547
p7015
L333003L
tp7016
a(V\u793c\u6797\u9547
p7017
L333003L
tp7018
a(V\u5854\u524d\u9547
p7019
L333003L
tp7020
a(V\u53cc\u7530\u9547
p7021
L333003L
tp7022
a(V\u4e34\u6e2f\u9547
p7023
L333003L
tp7024
a(V\u9ad8\u5bb6\u9547
p7025
L333003L
tp7026
a(V\u6d3a\u53e3\u9547
p7027
L333003L
tp7028
a(V\u6d6f\u53e3\u9547
p7029
L333003L
tp7030
a(V\u9e2c\u9e5a\u4e61
p7031
L333003L
tp7032
a(V\u5341\u91cc\u5c97\u4e61
p7033
L333003L
tp7034
assS'130604'
p7035
(dp7036
g11
(lp7037
(V\u4e49\u5b89\u9547\u53ca\u4e0b\u5c5e\u6751\u5e84
p7038
L974100L
tp7039
a(V\u77f3\u4ead\u9547\u53ca\u4e0b\u5c5e\u6751\u5e84
p7040
L974100L
tp7041
a(V\u5b8b\u5404\u5e84\u9547\u53ca\u4e0b\u5c5e\u6751\u5e84
p7042
L974100L
tp7043
a(V\u4e09\u5761\u9547\u53ca\u4e0b\u5c5e\u6751\u5e84
p7044
L974100L
tp7045
a(V\u4e5d\u9f99\u9547\u53ca\u4e0b\u5c5e\u6751\u5e84
p7046
L974100L
tp7047
a(V\u80e1\u5bb6\u5e84\u4e61\u53ca\u4e0b\u5c5e\u6751\u5e84
p7048
L974100L
tp7049
a(V\u660e\u4e49\u4e61\u53ca\u4e0b\u5c5e\u6751\u5e84
p7050
L974100L
tp7051
a(V\u6c38\u9633\u9547\u53ca\u4e0b\u5c5e\u6751\u5e84
p7052
L974100L
tp7053
a(V\u4e1c\u6587\u5c71\u4e61\u53ca\u4e0b\u5c5e\u6751\u5e84
p7054
L974100L
tp7055
a(V\u738b\u6751\u4e61\u53ca\u4e0b\u5c5e\u6751\u5e84
p7056
L974100L
tp7057
a(V\u5a04\u6751\u6ee1\u65cf\u4e61\u53ca\u4e0b\u5c5e\u6751\u5e84
p7058
L974100L
tp7059
a(V\u8d75\u5404\u5e84\u9547\u53ca\u4e0b\u5c5e\u6751\u5e84
p7060
L974100L
tp7061
a(V\u5176\u4e2d\u53e3\u4e61\u53ca\u4e0b\u5c5e\u6751\u5e84
p7062
L974100L
tp7063
a(V\u9f99\u95e8\u53e3\u4e61\u53ca\u4e0b\u5c5e\u6751\u5e84
p7064
L974100L
tp7065
assS'451402'
p7066
(dp7067
g157
(lp7068
(V\u519c\u573a
p7069
L532400L
tp7070
a(V\u6d77\u87ba\u6c34\u6ce5\u573a
p7071
L532100L
tp7072
a(V\u90e8\u961f
p7073
L532100L
tp7074
assS'320922'
p7075
(dp7076
g157
(lp7077
(V\u6ee8\u6dee\u519c\u573a
p7078
L224500L
tp7079
assS'320623'
p7080
(dp7081
g157
(lp7082
(V\u6cbf\u6d77\u57a6\u533a
p7083
L226400L
tp7084
a(V\u519c\u573a
p7085
L226400L
tp7086
assS'410303'
p7087
(dp7088
g11
(lp7089
(V15\u4e2d\u5b66
p7090
L471004L
tp7091
assS'350702'
p7092
(dp7093
g3
(lp7094
(V\u4e1c\u90ca\u4e1c\u8def
p7095
L353200L
tp7096
assS'210702'
p7097
(dp7098
g157
(lp7099
(V\u5176\u4ed6\u4e0d\u9001
p7100
L121004L
tp7101
a(V\u5176\u5b83\u4e0d\u9001
p7102
L121020L
tp7103
assS'230521'
p7104
(dp7105
g157
(lp7106
(V\u80e1\u901a
p7107
L155103L
tp7108
assS'411023'
p7109
(dp7110
g157
(lp7111
(V\u5176\u5b83\u4e0d\u9001
p7112
L461010L
tp7113
assS'510131'
p7114
(dp7115
g11
(lp7116
(V\u5927\u5858\u9547
p7117
L611630L
tp7118
a(V\u671d\u9633\u6e56\u9547
p7119
L611630L
tp7120
a(V\u897f\u6765\u9547
p7121
L611630L
tp7122
a(V\u5927\u5174\u9547
p7123
L611630L
tp7124
a(V\u7518\u6eaa\u9547
p7125
L611630L
tp7126
a(V\u6210\u4f73\u9547
p7127
L611630L
tp7128
a(V\u590d\u5174\u4e61
p7129
L611630L
tp7130
a(V\u5149\u660e\u4e61
p7131
L611630L
tp7132
a(V\u767d\u4e91\u4e61
p7133
L611630L
tp7134
a(V\u957f\u79cb\u4e61
p7135
L611630L
tp7136
assS'510132'
p7137
(dp7138
g11
(lp7139
(V\u5174\u4e49\u9547
p7140
L610025L
tp7141
a(V\u6587\u4e95\u4e61
p7142
L610025L
tp7143
a(V\u65b9\u5174\u9547
p7144
L610025L
tp7145
assS'440823'
p7146
(dp7147
g11
(lp7148
(V\u6c99\u576d\u4e2d\u5b66
p7149
L524100L
tp7150
a(V\u6c99\u576d\u5c0f\u5b66
p7151
L524100L
tp7152
a(V\u767d\u6ce5\u5761\u6c11\u8425\u5de5\u4e1a\u56ed
p7153
L524100L
tp7154
a(V\u9ad8\u901f\u516c\u8def\u516c\u53f8
p7155
L524100L
tp7156
assS'430224'
p7157
(dp7158
g11
(lp7159
(V\u4e0b\u4e1c\u4e61\u91d1\u661f\u5de5\u4e1a\u56ed
p7160
L412400L
tp7161
a(V\u4e8c\u7ea7\u5de5\u4e1a\u56ed
p7162
L412400L
tp7163
assS'441423'
p7164
(dp7165
g11
(lp7166
(V\u4e1c\u5c71\u8def\u6d3e\u9001\u81f3\u4e1c\u6d77\u4e2d\u5b66
p7167
L514300L
tp7168
assS'441421'
p7169
(dp7170
g11
(lp7171
(V\u77f3\u6247\u9547
p7172
L514020L
tp7173
a(V\u9686\u6587\u9547
p7174
L514020L
tp7175
a(V\u6843\u5c27\u9547
p7176
L514020L
tp7177
a(V\u6885\u5357\u9547
p7178
L514020L
tp7179
a(V\u6c34\u8f66\u9547
p7180
L514020L
tp7181
a(V\u77f3\u5751\u9547
p7182
L514020L
tp7183
a(V\u5927\u576a\u9547
p7184
L514020L
tp7185
assS'222402'
p7186
(dp7187
g11
(lp7188
(V\u77f3\u5c98\u9547
p7189
L133100L
tp7190
a(V\u957f\u5b89\u9547
p7191
L133100L
tp7192
a(V\u6708\u6674\u9547
p7193
L133100L
tp7194
a(V\u77f3\u5c98\u9547
p7195
L133100L
tp7196
a(V\u957f\u5b89\u9547
p7197
L133100L
tp7198
a(V\u6708\u6674\u9547
p7199
L133100L
tp7200
assS'510727'
p7201
(dp7202
g11
(lp7203
(V\u53e4\u57ce\u9547
p7204
L622550L
tp7205
a(V\u5357\u575d\u9547
p7206
L622550L
tp7207
a(V\u54cd\u5ca9\u9547
p7208
L622550L
tp7209
a(V\u5e73\u901a\u9547
p7210
L622550L
tp7211
a(V\u8c46\u53e9\u9547
p7212
L622550L
tp7213
a(V\u5927\u5370\u9547
p7214
L622550L
tp7215
a(V\u5927\u6865\u9547
p7216
L622550L
tp7217
a(V\u6c34\u6676\u9547\u53ca\u5404\u4e61\u9547
p7218
L622550L
tp7219
a(V\u53e4\u57ce\u9547
p7220
L622550L
tp7221
a(V\u5357\u575d\u9547
p7222
L622550L
tp7223
a(V\u54cd\u5ca9\u9547
p7224
L622550L
tp7225
a(V\u5e73\u901a\u9547
p7226
L622550L
tp7227
a(V\u8c46\u53e9\u9547
p7228
L622550L
tp7229
a(V\u5927\u5370\u9547
p7230
L622550L
tp7231
a(V\u5927\u6865\u9547
p7232
L622550L
tp7233
a(V\u6c34\u6676\u9547\u53ca\u5404\u4e61\u9547
p7234
L622550L
tp7235
assS'330723'
p7236
(dp7237
g157
(lp7238
(V\u5176\u4ed6\u4e0d\u5230
p7239
L321200L
tp7240
assS'361028'
p7241
(dp7242
g11
(lp7243
(V\u9a6c\u5934\u5c71\u9547
p7244
L344100L
tp7245
a(V\u5d69\u5e02\u9547
p7246
L344100L
tp7247
a(V\u4e4c\u77f3\u9547
p7248
L344100L
tp7249
a(V\u9ad8\u7530\u4e61
p7250
L344100L
tp7251
assS'230381'
p7252
(dp7253
g157
(lp7254
(V\u516b\u4e94\u96f6\u519c\u573a
p7255
L158400L
tp7256
a(V\u5e86\u4e30\u519c\u573a
p7257
L158400L
tp7258
assS'130123'
p7259
(dp7260
g157
(lp7261
(V\u5929\u5929\u4e73\u4e1a
p7262
L950001L
tp7263
a(V\u4e09\u4e2d
p7264
L950001L
tp7265
a(V\u4e03\u4e2d
p7266
L950001L
tp7267
a(V\u6ef9\u6cb1\u6cb3\u5927\u6865
p7268
L950001L
tp7269
assS'310112'
p7270
(dp7271
g157
(lp7272
(V\u65e0
p7273
L201150L
tp7274
a(V\u65e0
p7275
L201150L
tp7276
assS'310113'
p7277
(dp7278
g157
(lp7279
(V\u6682\u505c
p7280
L201914L
tp7281
assS'653101'
p7282
(dp7283
g157
(lp7284
(V\u5176\u5b83\u4e0d\u9001
p7285
L844100L
tp7286
assS'310115'
p7287
(dp7288
g157
(lp7289
(V\u5176\u5b83\u4e0d\u9001
p7290
L201305L
tp7291
assS'310117'
p7292
(dp7293
g157
(lp7294
(V\u5176\u4ed6\u4e0d\u9001
p7295
L200317L
tp7296
a(V\u5176\u4ed6\u4e0d\u9001
p7297
L200317L
tp7298
assS'370105'
p7299
(dp7300
g157
(lp7301
(V\u5176\u5b83\u4e0d\u9001
p7302
L251610L
tp7303
assS'511802'
p7304
(dp7305
g11
(lp7306
(V\u59cb\u9633\u9547
p7307
L625003L
tp7308
a(V\u4ec1\u4e49\u4e61
p7309
L625003L
tp7310
a(V\u65b0\u573a\u4e61
p7311
L625003L
tp7312
a(V\u7d2b\u77f3\u4e61
p7313
L625003L
tp7314
a(V\u5c0f\u6cb3\u4e61
p7315
L625003L
tp7316
a(V\u8001\u573a\u4e61
p7317
L625003L
tp7318
a(V\u65b0\u534e\u4e61
p7319
L625003L
tp7320
a(V\u94dc\u5382\u4e61
p7321
L625003L
tp7322
a(V\u591a\u529f\u4e61
p7323
L625003L
tp7324
a(V\u9c7c\u6cc9\u4e61
p7325
L625003L
tp7326
a(V\u4e30\u4e50\u4e61
p7327
L625400L
tp7328
a(V\u5bb0\u7f8a\u4e61
p7329
L625400L
tp7330
a(V\u8fce\u653f\u4e61
p7331
L625400L
tp7332
a(V\u7f8e\u7f57\u4e61
p7333
L625400L
tp7334
a(V\u6316\u89d2\u4e61
p7335
L625400L
tp7336
a(V\u7530\u6e7e\u4e61
p7337
L625400L
tp7338
a(V\u65b0\u6c11\u4e61
p7339
L625400L
tp7340
a(V\u5148\u950b\u4e61
p7341
L625400L
tp7342
a(V\u87f9\u87ba\u4e61
p7343
L625400L
tp7344
a(V\u5b89\u987a\u4e61
p7345
L625400L
tp7346
a(V\u56de\u9686\u4e61
p7347
L625400L
tp7348
a(V\u64e6\u7f57\u4e61
p7349
L625400L
tp7350
a(V\u6817\u5b50\u576a\u4e61
p7351
L625400L
tp7352
assS'152527'
p7353
(dp7354
g11
(lp7355
(V\u5e78\u798f\u4e61
p7356
L910302L
tp7357
a(V\u7ea2\u65d7\u9547
p7358
L910302L
tp7359
a(V\u5343\u65a4\u6c9f\u9547
p7360
L910302L
tp7361
a(V\u9a86\u9a7c\u5c71\u9547
p7362
L910302L
tp7363
assS'431103'
p7364
(dp7365
g157
(lp7366
(V\u6c5f\u534e\u81ea\u6cbb\u53bf
p7367
L425000L
tp7368
a(V\u90ca\u533a
p7369
L425100L
tp7370
assS'150124'
p7371
(dp7372
g157
(lp7373
(V\u5587\u561b\u6e7e
p7374
L910073L
tp7375
a(V\u5587\u561b\u6e7e
p7376
L910073L
tp7377
assS'131181'
p7378
(dp7379
g11
(lp7380
(V\u5180\u5dde\u9547
p7381
L953200L
tp7382
a(V\u5b98\u9053\u674e\u9547
p7383
L953200L
tp7384
a(V\u5357\u5348\u6751\u9547
p7385
L953200L
tp7386
a(V\u5468\u6751\u9547
p7387
L953200L
tp7388
a(V\u7801\u5934\u674e\u9547
p7389
L953200L
tp7390
a(V\u897f\u738b\u9547
p7391
L953200L
tp7392
a(V\u95e8\u5e84\u4e61
p7393
L953200L
tp7394
a(V\u5f90\u5bb6\u5e84\u4e61
p7395
L953200L
tp7396
a(V\u5317\u6f33\u6dee\u4e61
p7397
L953200L
tp7398
a(V\u5c0f\u5be8\u4e61
p7399
L953200L
tp7400
a(V\u5180\u5dde\u9547
p7401
L953200L
tp7402
a(V\u5b98\u9053\u674e\u9547
p7403
L953200L
tp7404
a(V\u5357\u5348\u6751\u9547
p7405
L953200L
tp7406
a(V\u5468\u6751\u9547
p7407
L953200L
tp7408
a(V\u7801\u5934\u674e\u9547
p7409
L953200L
tp7410
a(V\u897f\u738b\u9547
p7411
L953200L
tp7412
a(V\u95e8\u5e84\u4e61
p7413
L953200L
tp7414
a(V\u5f90\u5bb6\u5e84\u4e61
p7415
L953200L
tp7416
a(V\u5317\u6f33\u6dee\u4e61
p7417
L953200L
tp7418
a(V\u5c0f\u5be8\u4e61
p7419
L953200L
tp7420
assS'131028'
p7421
(dp7422
g11
(lp7423
(V\u590f\u57ab\u9547
p7424
L965300L
tp7425
a(V\u90b5\u5e9c\u4e61
p7426
L965300L
tp7427
assS'370321'
p7428
(dp7429
g11
(lp7430
(V\u8d77\u98ce\u9547
p7431
L256401L
tp7432
a(V\u8346\u5bb6\u9547
p7433
L256401L
tp7434
a(V\u9a6c\u6865\u9547
p7435
L256401L
tp7436
a(V\u9648\u5e84\u9547
p7437
L256401L
tp7438
a(V\u90a2\u5bb6\u9547
p7439
L256401L
tp7440
a(V\u7530\u5e84\u9547
p7441
L256401L
tp7442
a(V\u5468\u5bb6\u9547
p7443
L256401L
tp7444
a(V\u679c\u91cc\u9547
p7445
L256401L
tp7446
a(V\u803f\u6865\u9547
p7447
L256401L
tp7448
a(V\u8d77\u98ce\u9547
p7449
L256401L
tp7450
a(V\u8346\u5bb6\u9547
p7451
L256401L
tp7452
a(V\u9a6c\u6865\u9547
p7453
L256401L
tp7454
a(V\u9648\u5e84\u9547
p7455
L256401L
tp7456
a(V\u90a2\u5bb6\u9547
p7457
L256401L
tp7458
a(V\u7530\u5e84\u9547
p7459
L256401L
tp7460
a(V\u5468\u5bb6\u9547
p7461
L256401L
tp7462
a(V\u679c\u91cc\u9547
p7463
L256401L
tp7464
a(V\u803f\u6865\u9547
p7465
L256401L
tp7466
assS'370323'
p7467
(dp7468
g11
(lp7469
(V\u9c81\u6751\u9547
p7470
L256100L
tp7471
a(V\u4e1c\u91cc\u9547
p7472
L256100L
tp7473
a(V\u897f\u91cc\u9547
p7474
L256100L
tp7475
a(V\u5927\u5f20\u5e84\u9547
p7476
L256100L
tp7477
a(V\u4e2d\u5e84\u9547
p7478
L256100L
tp7479
a(V\u5f20\u5bb6\u5761\u9547
p7480
L256100L
tp7481
a(V\u71d5\u5d16\u9547
p7482
L256100L
tp7483
a(V\u77f3\u6865\u9547
p7484
L256100L
tp7485
a(V\u9c81\u6751\u9547
p7486
L256100L
tp7487
a(V\u4e1c\u91cc\u9547
p7488
L256100L
tp7489
a(V\u897f\u91cc\u9547
p7490
L256100L
tp7491
a(V\u5927\u5f20\u5e84\u9547
p7492
L256100L
tp7493
a(V\u4e2d\u5e84\u9547
p7494
L256100L
tp7495
a(V\u5f20\u5bb6\u5761\u9547
p7496
L256100L
tp7497
a(V\u71d5\u5d16\u9547
p7498
L256100L
tp7499
a(V\u77f3\u6865\u9547
p7500
L256100L
tp7501
assS'330205'
p7502
(dp7503
g157
(lp7504
(V\u6682\u505c
p7505
L315041L
tp7506
a(V\u6682\u505c
p7507
L315036L
tp7508
assS'330203'
p7509
(dp7510
g157
(lp7511
(V\u5176\u4ed6\u4e0d\u9001
p7512
L315518L
tp7513
a(V\u5176\u4ed6\u4e0d\u6d3e\u9001
p7514
L315509L
tp7515
a(V\u5176\u4ed6\u4e0d\u9001
p7516
L315510L
tp7517
a(V\u6682\u505c
p7518
L315014L
tp7519
a(V\u6682\u505c
p7520
L315015L
tp7521
a(V\u6682\u505c
p7522
L315018L
tp7523
assS'350206'
p7524
(dp7525
g157
(lp7526
(V\u66f4\u65b0\u65f6\u95f4
p7527
L361000L
tp7528
assS'532532'
p7529
(dp7530
g11
(lp7531
(V\u5357\u6eaa\u9547
p7532
L661300L
tp7533
a(V\u7476\u5c71\u4e61
p7534
L661300L
tp7535
a(V\u83b2\u82b1\u6ee9\u4e61
p7536
L661300L
tp7537
a(V\u7476\u5c71\u4e61
p7538
L661300L
tp7539
assS'320282'
p7540
(dp7541
g157
(lp7542
(V\u5b9c\u5174\u76d1\u72f1
p7543
L214200L
tp7544
a(V\u90e8\u961f
p7545
L214200L
tp7546
a(V\u5bfa\u5e99
p7547
L214200L
tp7548
a(V\u5176\u4ed6\u4e0d\u9001
p7549
L214200L
tp7550
assS'441324'
p7551
(dp7552
g11
(lp7553
(V\u9ebb\u69a8\u9547
p7554
L516142L
tp7555
a(V\u6c38\u6c49\u9547
p7556
L516142L
tp7557
a(V\u9f99\u534e\u9547
p7558
L516142L
tp7559
a(V\u9f99\u6c5f\u9547
p7560
L516142L
tp7561
a(V\u9f99\u7530\u9547
p7562
L516142L
tp7563
a(V\u5730\u6d3e\u9547
p7564
L516142L
tp7565
a(V\u9f99\u6f6d\u9547
p7566
L516142L
tp7567
a(V\u6e05\u6eaa\u9547
p7568
L516142L
tp7569
a(V\u84dd\u5929\u7476\u65cf\u4e61
p7570
L516142L
tp7571
assS'430102'
p7572
(dp7573
g157
(lp7574
(V\u5176\u5b83\u4e0d\u9001
p7575
L410006L
tp7576
assS'330682'
p7577
(dp7578
g11
(lp7579
(V\u4e0b\u7ba1\u9547
p7580
L312300L
tp7581
a(V\u5cad\u5357\u4e61
p7582
L312300L
tp7583
a(V\u9648\u6eaa\u4e61
p7584
L312300L
tp7585
a(V\u4e01\u5b85\u4e61
p7586
L312300L
tp7587
a(V\u9f99\u6d66\u4e61
p7588
L312300L
tp7589
assS'330683'
p7590
(dp7591
g11
(lp7592
(V\u8c37\u6765\u9547
p7593
L312400L
tp7594
assS'430103'
p7595
(dp7596
g157
(lp7597
(V\u540c\u5347\u6e56
p7598
L410026L
tp7599
assS'532323'
p7600
(dp7601
g157
(lp7602
(V\u9752\u9f99
p7603
L650073L
tp7604
assS'340406'
p7605
(dp7606
g157
(lp7607
(V\u6682\u505c
p7608
L232004L
tp7609
assS'340403'
p7610
(dp7611
g157
(lp7612
(V\u7801\u5934
p7613
L232002L
tp7614
a(V\u6e2f\u53e3
p7615
L232002L
tp7616
a(V\u59da\u5bb6\u6e7e
p7617
L232002L
tp7618
ass.